	.file	"Average_of_Three.cpp"
	.section .rdata,"dr"
__ZStL19piecewise_construct:
	.space 1
__ZStL13allocator_arg:
	.space 1
__ZStL6ignore:
	.space 1
.lcomm __ZStL8__ioinit,1,1
	.align 4
__ZN9__gnu_cxxL21__default_lock_policyE:
	.long	2
__ZStL10defer_lock:
	.space 1
__ZStL11try_to_lock:
	.space 1
__ZStL10adopt_lock:
	.space 1
	.align 4
__ZNSt15regex_constantsL5icaseE:
	.long	1
	.align 4
__ZNSt15regex_constantsL6nosubsE:
	.long	2
	.align 4
__ZNSt15regex_constantsL8optimizeE:
	.long	4
	.align 4
__ZNSt15regex_constantsL7collateE:
	.long	8
	.align 4
__ZNSt15regex_constantsL10ECMAScriptE:
	.long	16
	.align 4
__ZNSt15regex_constantsL5basicE:
	.long	32
	.align 4
__ZNSt15regex_constantsL8extendedE:
	.long	64
	.align 4
__ZNSt15regex_constantsL3awkE:
	.long	128
	.align 4
__ZNSt15regex_constantsL4grepE:
	.long	256
	.align 4
__ZNSt15regex_constantsL5egrepE:
	.long	512
	.align 4
__ZNSt15regex_constantsL12__polynomialE:
	.long	1024
	.align 4
__ZNSt15regex_constantsL13match_defaultE:
	.space 4
	.align 4
__ZNSt15regex_constantsL13match_not_bolE:
	.long	1
	.align 4
__ZNSt15regex_constantsL13match_not_eolE:
	.long	2
	.align 4
__ZNSt15regex_constantsL13match_not_bowE:
	.long	4
	.align 4
__ZNSt15regex_constantsL13match_not_eowE:
	.long	8
	.align 4
__ZNSt15regex_constantsL9match_anyE:
	.long	16
	.align 4
__ZNSt15regex_constantsL14match_not_nullE:
	.long	32
	.align 4
__ZNSt15regex_constantsL16match_continuousE:
	.long	64
	.align 4
__ZNSt15regex_constantsL16match_prev_availE:
	.long	128
	.align 4
__ZNSt15regex_constantsL14format_defaultE:
	.space 4
	.align 4
__ZNSt15regex_constantsL10format_sedE:
	.long	256
	.align 4
__ZNSt15regex_constantsL14format_no_copyE:
	.long	512
	.align 4
__ZNSt15regex_constantsL17format_first_onlyE:
	.long	1024
	.align 4
__ZNSt15regex_constantsL13error_collateE:
	.space 4
	.align 4
__ZNSt15regex_constantsL11error_ctypeE:
	.long	1
	.align 4
__ZNSt15regex_constantsL12error_escapeE:
	.long	2
	.align 4
__ZNSt15regex_constantsL13error_backrefE:
	.long	3
	.align 4
__ZNSt15regex_constantsL11error_brackE:
	.long	4
	.align 4
__ZNSt15regex_constantsL11error_parenE:
	.long	5
	.align 4
__ZNSt15regex_constantsL11error_braceE:
	.long	6
	.align 4
__ZNSt15regex_constantsL14error_badbraceE:
	.long	7
	.align 4
__ZNSt15regex_constantsL11error_rangeE:
	.long	8
	.align 4
__ZNSt15regex_constantsL11error_spaceE:
	.long	9
	.align 4
__ZNSt15regex_constantsL15error_badrepeatE:
	.long	10
	.align 4
__ZNSt15regex_constantsL16error_complexityE:
	.long	11
	.align 4
__ZNSt15regex_constantsL11error_stackE:
	.long	12
	.align 4
__ZNSt8__detailL19_S_invalid_state_idE:
	.long	-1
	.def	___main;	.scl	2;	.type	32;	.endef
LC0:
	.ascii " \0"
LC1:
	.ascii "\12\0"
	.text
	.globl	_main
	.def	_main;	.scl	2;	.type	32;	.endef
_main:
LFB7686:
	.cfi_startproc
	leal	4(%esp), %ecx
	.cfi_def_cfa 1, 0
	andl	$-16, %esp
	pushl	-4(%ecx)
	pushl	%ebp
	.cfi_escape 0x10,0x5,0x2,0x75,0
	movl	%esp, %ebp
	pushl	%esi
	pushl	%ebx
	pushl	%ecx
	.cfi_escape 0xf,0x3,0x75,0x74,0x6
	.cfi_escape 0x10,0x6,0x2,0x75,0x7c
	.cfi_escape 0x10,0x3,0x2,0x75,0x78
	subl	$44, %esp
	call	___main
	movl	$0, (%esp)
	call	__ZNSt8ios_base15sync_with_stdioEb
	movl	$0, (%esp)
	movl	$__ZSt3cin+8, %ecx
	call	__ZNSt9basic_iosIcSt11char_traitsIcEE3tieEPSo
	subl	$4, %esp
	leal	-28(%ebp), %eax
	movl	%eax, (%esp)
	movl	$__ZSt3cin, %ecx
	call	__ZNSirsERi
	subl	$4, %esp
L3:
	movl	-28(%ebp), %eax
	leal	-1(%eax), %edx
	movl	%edx, -28(%ebp)
	testl	%eax, %eax
	setne	%al
	testb	%al, %al
	je	L2
	leal	-32(%ebp), %eax
	movl	%eax, (%esp)
	movl	$__ZSt3cin, %ecx
	call	__ZNSirsERi
	subl	$4, %esp
	movl	-32(%ebp), %eax
	leal	1(%eax), %esi
	movl	-32(%ebp), %ebx
	movl	-32(%ebp), %eax
	subl	$1, %eax
	movl	%eax, (%esp)
	movl	$__ZSt4cout, %ecx
	call	__ZNSolsEi
	subl	$4, %esp
	movl	$LC0, 4(%esp)
	movl	%eax, (%esp)
	call	__ZStlsISt11char_traitsIcEERSt13basic_ostreamIcT_ES5_PKc
	movl	%ebx, (%esp)
	movl	%eax, %ecx
	call	__ZNSolsEi
	subl	$4, %esp
	movl	$LC0, 4(%esp)
	movl	%eax, (%esp)
	call	__ZStlsISt11char_traitsIcEERSt13basic_ostreamIcT_ES5_PKc
	movl	%esi, (%esp)
	movl	%eax, %ecx
	call	__ZNSolsEi
	subl	$4, %esp
	movl	$LC1, 4(%esp)
	movl	%eax, (%esp)
	call	__ZStlsISt11char_traitsIcEERSt13basic_ostreamIcT_ES5_PKc
	jmp	L3
L2:
	movl	$0, %eax
	leal	-12(%ebp), %esp
	popl	%ecx
	.cfi_restore 1
	.cfi_def_cfa 1, 0
	popl	%ebx
	.cfi_restore 3
	popl	%esi
	.cfi_restore 6
	popl	%ebp
	.cfi_restore 5
	leal	-4(%ecx), %esp
	.cfi_def_cfa 4, 4
	ret
	.cfi_endproc
LFE7686:
	.def	___tcf_0;	.scl	3;	.type	32;	.endef
___tcf_0:
LFB8225:
	.cfi_startproc
	pushl	%ebp
	.cfi_def_cfa_offset 8
	.cfi_offset 5, -8
	movl	%esp, %ebp
	.cfi_def_cfa_register 5
	subl	$8, %esp
	movl	$__ZStL8__ioinit, %ecx
	call	__ZNSt8ios_base4InitD1Ev
	leave
	.cfi_restore 5
	.cfi_def_cfa 4, 4
	ret
	.cfi_endproc
LFE8225:
	.def	__Z41__static_initialization_and_destruction_0ii;	.scl	3;	.type	32;	.endef
__Z41__static_initialization_and_destruction_0ii:
LFB8224:
	.cfi_startproc
	pushl	%ebp
	.cfi_def_cfa_offset 8
	.cfi_offset 5, -8
	movl	%esp, %ebp
	.cfi_def_cfa_register 5
	subl	$24, %esp
	cmpl	$1, 8(%ebp)
	jne	L8
	cmpl	$65535, 12(%ebp)
	jne	L8
	movl	$__ZStL8__ioinit, %ecx
	call	__ZNSt8ios_base4InitC1Ev
	movl	$___tcf_0, (%esp)
	call	_atexit
L8:
	nop
	leave
	.cfi_restore 5
	.cfi_def_cfa 4, 4
	ret
	.cfi_endproc
LFE8224:
	.def	__GLOBAL__sub_I_main;	.scl	3;	.type	32;	.endef
__GLOBAL__sub_I_main:
LFB8226:
	.cfi_startproc
	pushl	%ebp
	.cfi_def_cfa_offset 8
	.cfi_offset 5, -8
	movl	%esp, %ebp
	.cfi_def_cfa_register 5
	subl	$24, %esp
	movl	$65535, 4(%esp)
	movl	$1, (%esp)
	call	__Z41__static_initialization_and_destruction_0ii
	leave
	.cfi_restore 5
	.cfi_def_cfa 4, 4
	ret
	.cfi_endproc
LFE8226:
	.section	.ctors,"w"
	.align 4
	.long	__GLOBAL__sub_I_main
	.ident	"GCC: (MinGW.org GCC-6.3.0-1) 6.3.0"
	.def	__ZNSt8ios_base15sync_with_stdioEb;	.scl	2;	.type	32;	.endef
	.def	__ZNSt9basic_iosIcSt11char_traitsIcEE3tieEPSo;	.scl	2;	.type	32;	.endef
	.def	__ZNSirsERi;	.scl	2;	.type	32;	.endef
	.def	__ZNSolsEi;	.scl	2;	.type	32;	.endef
	.def	__ZStlsISt11char_traitsIcEERSt13basic_ostreamIcT_ES5_PKc;	.scl	2;	.type	32;	.endef
	.def	__ZNSt8ios_base4InitD1Ev;	.scl	2;	.type	32;	.endef
	.def	__ZNSt8ios_base4InitC1Ev;	.scl	2;	.type	32;	.endef
	.def	_atexit;	.scl	2;	.type	32;	.endef
