	.file	"Maximising_Vacations.cpp"
	.section .rdata,"dr"
__ZStL19piecewise_construct:
	.space 1
	.section	.text$_ZnwjPv,"x"
	.linkonce discard
	.globl	__ZnwjPv
	.def	__ZnwjPv;	.scl	2;	.type	32;	.endef
__ZnwjPv:
LFB691:
	.cfi_startproc
	pushl	%ebp
	.cfi_def_cfa_offset 8
	.cfi_offset 5, -8
	movl	%esp, %ebp
	.cfi_def_cfa_register 5
	movl	12(%ebp), %eax
	popl	%ebp
	.cfi_restore 5
	.cfi_def_cfa 4, 4
	ret
	.cfi_endproc
LFE691:
	.section	.text$_ZSt16__deque_buf_sizej,"x"
	.linkonce discard
	.globl	__ZSt16__deque_buf_sizej
	.def	__ZSt16__deque_buf_sizej;	.scl	2;	.type	32;	.endef
__ZSt16__deque_buf_sizej:
LFB2594:
	.cfi_startproc
	pushl	%ebp
	.cfi_def_cfa_offset 8
	.cfi_offset 5, -8
	movl	%esp, %ebp
	.cfi_def_cfa_register 5
	cmpl	$511, 8(%ebp)
	ja	L4
	movl	$512, %eax
	movl	$0, %edx
	divl	8(%ebp)
	jmp	L6
L4:
	movl	$1, %eax
L6:
	popl	%ebp
	.cfi_restore 5
	.cfi_def_cfa 4, 4
	ret
	.cfi_endproc
LFE2594:
	.section .rdata,"dr"
__ZStL13allocator_arg:
	.space 1
__ZStL6ignore:
	.space 1
.lcomm __ZStL8__ioinit,1,1
	.align 4
__ZN9__gnu_cxxL21__default_lock_policyE:
	.long	2
__ZStL10defer_lock:
	.space 1
__ZStL11try_to_lock:
	.space 1
__ZStL10adopt_lock:
	.space 1
	.align 4
__ZNSt15regex_constantsL5icaseE:
	.long	1
	.align 4
__ZNSt15regex_constantsL6nosubsE:
	.long	2
	.align 4
__ZNSt15regex_constantsL8optimizeE:
	.long	4
	.align 4
__ZNSt15regex_constantsL7collateE:
	.long	8
	.align 4
__ZNSt15regex_constantsL10ECMAScriptE:
	.long	16
	.align 4
__ZNSt15regex_constantsL5basicE:
	.long	32
	.align 4
__ZNSt15regex_constantsL8extendedE:
	.long	64
	.align 4
__ZNSt15regex_constantsL3awkE:
	.long	128
	.align 4
__ZNSt15regex_constantsL4grepE:
	.long	256
	.align 4
__ZNSt15regex_constantsL5egrepE:
	.long	512
	.align 4
__ZNSt15regex_constantsL12__polynomialE:
	.long	1024
	.align 4
__ZNSt15regex_constantsL13match_defaultE:
	.space 4
	.align 4
__ZNSt15regex_constantsL13match_not_bolE:
	.long	1
	.align 4
__ZNSt15regex_constantsL13match_not_eolE:
	.long	2
	.align 4
__ZNSt15regex_constantsL13match_not_bowE:
	.long	4
	.align 4
__ZNSt15regex_constantsL13match_not_eowE:
	.long	8
	.align 4
__ZNSt15regex_constantsL9match_anyE:
	.long	16
	.align 4
__ZNSt15regex_constantsL14match_not_nullE:
	.long	32
	.align 4
__ZNSt15regex_constantsL16match_continuousE:
	.long	64
	.align 4
__ZNSt15regex_constantsL16match_prev_availE:
	.long	128
	.align 4
__ZNSt15regex_constantsL14format_defaultE:
	.space 4
	.align 4
__ZNSt15regex_constantsL10format_sedE:
	.long	256
	.align 4
__ZNSt15regex_constantsL14format_no_copyE:
	.long	512
	.align 4
__ZNSt15regex_constantsL17format_first_onlyE:
	.long	1024
	.align 4
__ZNSt15regex_constantsL13error_collateE:
	.space 4
	.align 4
__ZNSt15regex_constantsL11error_ctypeE:
	.long	1
	.align 4
__ZNSt15regex_constantsL12error_escapeE:
	.long	2
	.align 4
__ZNSt15regex_constantsL13error_backrefE:
	.long	3
	.align 4
__ZNSt15regex_constantsL11error_brackE:
	.long	4
	.align 4
__ZNSt15regex_constantsL11error_parenE:
	.long	5
	.align 4
__ZNSt15regex_constantsL11error_braceE:
	.long	6
	.align 4
__ZNSt15regex_constantsL14error_badbraceE:
	.long	7
	.align 4
__ZNSt15regex_constantsL11error_rangeE:
	.long	8
	.align 4
__ZNSt15regex_constantsL11error_spaceE:
	.long	9
	.align 4
__ZNSt15regex_constantsL15error_badrepeatE:
	.long	10
	.align 4
__ZNSt15regex_constantsL16error_complexityE:
	.long	11
	.align 4
__ZNSt15regex_constantsL11error_stackE:
	.long	12
	.align 4
__ZNSt8__detailL19_S_invalid_state_idE:
	.long	-1
	.section	.text$_ZNSt5stackIcSt5dequeIcSaIcEEED1Ev,"x"
	.linkonce discard
	.align 2
	.globl	__ZNSt5stackIcSt5dequeIcSaIcEEED1Ev
	.def	__ZNSt5stackIcSt5dequeIcSaIcEEED1Ev;	.scl	2;	.type	32;	.endef
__ZNSt5stackIcSt5dequeIcSaIcEEED1Ev:
LFB7689:
	.cfi_startproc
	pushl	%ebp
	.cfi_def_cfa_offset 8
	.cfi_offset 5, -8
	movl	%esp, %ebp
	.cfi_def_cfa_register 5
	subl	$24, %esp
	movl	%ecx, -12(%ebp)
	movl	-12(%ebp), %eax
	movl	%eax, %ecx
	call	__ZNSt5dequeIcSaIcEED1Ev
	nop
	leave
	.cfi_restore 5
	.cfi_def_cfa 4, 4
	ret
	.cfi_endproc
LFE7689:
	.text
	.globl	__Z5solvev
	.def	__Z5solvev;	.scl	2;	.type	32;	.endef
__Z5solvev:
LFB7686:
	.cfi_startproc
	.cfi_personality 0,___gxx_personality_v0
	.cfi_lsda 0,LLSDA7686
	pushl	%ebp
	.cfi_def_cfa_offset 8
	.cfi_offset 5, -8
	movl	%esp, %ebp
	.cfi_def_cfa_register 5
	pushl	%ebx
	subl	$164, %esp
	.cfi_offset 3, -12
	leal	-72(%ebp), %eax
	movl	%eax, (%esp)
	movl	$__ZSt3cin, %ecx
LEHB0:
	call	__ZNSirsERi
	subl	$4, %esp
	movl	%eax, %edx
	leal	-76(%ebp), %eax
	movl	%eax, (%esp)
	movl	%edx, %ecx
	call	__ZNSirsERi
LEHE0:
	subl	$4, %esp
	leal	-100(%ebp), %eax
	movl	%eax, %ecx
	call	__ZNSt7__cxx1112basic_stringIcSt11char_traitsIcESaIcEEC1Ev
	leal	-100(%ebp), %eax
	movl	%eax, 4(%esp)
	movl	$__ZSt3cin, (%esp)
LEHB1:
	call	__ZStrsIcSt11char_traitsIcESaIcEERSt13basic_istreamIT_T0_ES7_RNSt7__cxx1112basic_stringIS4_S5_T1_EE
	leal	-68(%ebp), %eax
	movl	%eax, %ecx
	call	__ZNSt5dequeIcSaIcEEC1Ev
LEHE1:
	leal	-140(%ebp), %eax
	leal	-68(%ebp), %edx
	movl	%edx, (%esp)
	movl	%eax, %ecx
LEHB2:
	call	__ZNSt5stackIcSt5dequeIcSaIcEEEC1EOS2_
LEHE2:
	subl	$4, %esp
	leal	-68(%ebp), %eax
	movl	%eax, %ecx
	call	__ZNSt5dequeIcSaIcEED1Ev
	movl	$0, -24(%ebp)
	movl	$0, -28(%ebp)
	movl	$0, -12(%ebp)
	movl	$0, -16(%ebp)
L13:
	movl	-72(%ebp), %eax
	cmpl	%eax, -16(%ebp)
	jge	L9
	movl	-16(%ebp), %eax
	movl	%eax, -20(%ebp)
L12:
	movl	-72(%ebp), %eax
	cmpl	%eax, -20(%ebp)
	jge	L10
	movl	-16(%ebp), %edx
	leal	-100(%ebp), %eax
	movl	%edx, (%esp)
	movl	%eax, %ecx
LEHB3:
	call	__ZNSt7__cxx1112basic_stringIcSt11char_traitsIcESaIcEEixEj
	subl	$4, %esp
	movzbl	(%eax), %eax
	cmpb	$48, %al
	sete	%al
	testb	%al, %al
	je	L11
	addl	$1, -12(%ebp)
	movl	-16(%ebp), %edx
	leal	-100(%ebp), %eax
	movl	%edx, (%esp)
	movl	%eax, %ecx
	call	__ZNSt7__cxx1112basic_stringIcSt11char_traitsIcESaIcEEixEj
	subl	$4, %esp
	movl	%eax, %edx
	leal	-140(%ebp), %eax
	movl	%edx, (%esp)
	movl	%eax, %ecx
	call	__ZNSt5stackIcSt5dequeIcSaIcEEE4pushERKc
LEHE3:
	subl	$4, %esp
L11:
	addl	$1, -20(%ebp)
	jmp	L12
L10:
	addl	$1, -16(%ebp)
	jmp	L13
L9:
	leal	-140(%ebp), %eax
	movl	%eax, %ecx
	call	__ZNSt5stackIcSt5dequeIcSaIcEEED1Ev
	leal	-100(%ebp), %eax
	movl	%eax, %ecx
	call	__ZNSt7__cxx1112basic_stringIcSt11char_traitsIcESaIcEED1Ev
	jmp	L20
L18:
	movl	%eax, %ebx
	leal	-68(%ebp), %eax
	movl	%eax, %ecx
	call	__ZNSt5dequeIcSaIcEED1Ev
	jmp	L15
L19:
	movl	%eax, %ebx
	leal	-140(%ebp), %eax
	movl	%eax, %ecx
	call	__ZNSt5stackIcSt5dequeIcSaIcEEED1Ev
	jmp	L15
L17:
	movl	%eax, %ebx
L15:
	leal	-100(%ebp), %eax
	movl	%eax, %ecx
	call	__ZNSt7__cxx1112basic_stringIcSt11char_traitsIcESaIcEED1Ev
	movl	%ebx, %eax
	movl	%eax, (%esp)
LEHB4:
	call	__Unwind_Resume
LEHE4:
L20:
	movl	-4(%ebp), %ebx
	leave
	.cfi_restore 5
	.cfi_restore 3
	.cfi_def_cfa 4, 4
	ret
	.cfi_endproc
LFE7686:
	.def	___gxx_personality_v0;	.scl	2;	.type	32;	.endef
	.section	.gcc_except_table,"w"
LLSDA7686:
	.byte	0xff
	.byte	0xff
	.byte	0x1
	.uleb128 LLSDACSE7686-LLSDACSB7686
LLSDACSB7686:
	.uleb128 LEHB0-LFB7686
	.uleb128 LEHE0-LEHB0
	.uleb128 0
	.uleb128 0
	.uleb128 LEHB1-LFB7686
	.uleb128 LEHE1-LEHB1
	.uleb128 L17-LFB7686
	.uleb128 0
	.uleb128 LEHB2-LFB7686
	.uleb128 LEHE2-LEHB2
	.uleb128 L18-LFB7686
	.uleb128 0
	.uleb128 LEHB3-LFB7686
	.uleb128 LEHE3-LEHB3
	.uleb128 L19-LFB7686
	.uleb128 0
	.uleb128 LEHB4-LFB7686
	.uleb128 LEHE4-LEHB4
	.uleb128 0
	.uleb128 0
LLSDACSE7686:
	.text
	.def	___main;	.scl	2;	.type	32;	.endef
	.globl	_main
	.def	_main;	.scl	2;	.type	32;	.endef
_main:
LFB7690:
	.cfi_startproc
	leal	4(%esp), %ecx
	.cfi_def_cfa 1, 0
	andl	$-16, %esp
	pushl	-4(%ecx)
	pushl	%ebp
	.cfi_escape 0x10,0x5,0x2,0x75,0
	movl	%esp, %ebp
	pushl	%ecx
	.cfi_escape 0xf,0x3,0x75,0x7c,0x6
	subl	$36, %esp
	call	___main
	movl	$0, (%esp)
	call	__ZNSt8ios_base15sync_with_stdioEb
	movl	$0, (%esp)
	movl	$__ZSt3cin+8, %ecx
	call	__ZNSt9basic_iosIcSt11char_traitsIcEE3tieEPSo
	subl	$4, %esp
	leal	-12(%ebp), %eax
	movl	%eax, (%esp)
	movl	$__ZSt3cin, %ecx
	call	__ZNSirsERi
	subl	$4, %esp
L23:
	movl	-12(%ebp), %eax
	leal	-1(%eax), %edx
	movl	%edx, -12(%ebp)
	testl	%eax, %eax
	setne	%al
	testb	%al, %al
	je	L22
	call	__Z5solvev
	jmp	L23
L22:
	movl	$0, %eax
	movl	-4(%ebp), %ecx
	.cfi_def_cfa 1, 0
	leave
	.cfi_restore 5
	leal	-4(%ecx), %esp
	.cfi_def_cfa 4, 4
	ret
	.cfi_endproc
LFE7690:
	.section	.text$_ZSt4moveIRSaIcEEONSt16remove_referenceIT_E4typeEOS3_,"x"
	.linkonce discard
	.globl	__ZSt4moveIRSaIcEEONSt16remove_referenceIT_E4typeEOS3_
	.def	__ZSt4moveIRSaIcEEONSt16remove_referenceIT_E4typeEOS3_;	.scl	2;	.type	32;	.endef
__ZSt4moveIRSaIcEEONSt16remove_referenceIT_E4typeEOS3_:
LFB7756:
	.cfi_startproc
	pushl	%ebp
	.cfi_def_cfa_offset 8
	.cfi_offset 5, -8
	movl	%esp, %ebp
	.cfi_def_cfa_register 5
	movl	8(%ebp), %eax
	popl	%ebp
	.cfi_restore 5
	.cfi_def_cfa 4, 4
	ret
	.cfi_endproc
LFE7756:
	.section	.text$_ZNSt5dequeIcSaIcEEC1Ev,"x"
	.linkonce discard
	.align 2
	.globl	__ZNSt5dequeIcSaIcEEC1Ev
	.def	__ZNSt5dequeIcSaIcEEC1Ev;	.scl	2;	.type	32;	.endef
__ZNSt5dequeIcSaIcEEC1Ev:
LFB7964:
	.cfi_startproc
	pushl	%ebp
	.cfi_def_cfa_offset 8
	.cfi_offset 5, -8
	movl	%esp, %ebp
	.cfi_def_cfa_register 5
	subl	$24, %esp
	movl	%ecx, -12(%ebp)
	movl	-12(%ebp), %eax
	movl	%eax, %ecx
	call	__ZNSt11_Deque_baseIcSaIcEEC2Ev
	nop
	leave
	.cfi_restore 5
	.cfi_def_cfa 4, 4
	ret
	.cfi_endproc
LFE7964:
	.section	.text$_ZNSt5dequeIcSaIcEED1Ev,"x"
	.linkonce discard
	.align 2
	.globl	__ZNSt5dequeIcSaIcEED1Ev
	.def	__ZNSt5dequeIcSaIcEED1Ev;	.scl	2;	.type	32;	.endef
__ZNSt5dequeIcSaIcEED1Ev:
LFB7967:
	.cfi_startproc
	.cfi_personality 0,___gxx_personality_v0
	.cfi_lsda 0,LLSDA7967
	pushl	%ebp
	.cfi_def_cfa_offset 8
	.cfi_offset 5, -8
	movl	%esp, %ebp
	.cfi_def_cfa_register 5
	pushl	%ebx
	subl	$68, %esp
	.cfi_offset 3, -12
	movl	%ecx, -44(%ebp)
	movl	-44(%ebp), %eax
	movl	%eax, %ecx
	call	__ZNSt11_Deque_baseIcSaIcEE19_M_get_Tp_allocatorEv
	movl	%eax, %ebx
	leal	-40(%ebp), %eax
	movl	-44(%ebp), %edx
	movl	%edx, (%esp)
	movl	%eax, %ecx
	call	__ZNSt5dequeIcSaIcEE3endEv
	subl	$4, %esp
	leal	-24(%ebp), %eax
	movl	-44(%ebp), %edx
	movl	%edx, (%esp)
	movl	%eax, %ecx
	call	__ZNSt5dequeIcSaIcEE5beginEv
	subl	$4, %esp
	movl	-44(%ebp), %eax
	movl	%ebx, 8(%esp)
	leal	-40(%ebp), %edx
	movl	%edx, 4(%esp)
	leal	-24(%ebp), %edx
	movl	%edx, (%esp)
	movl	%eax, %ecx
	call	__ZNSt5dequeIcSaIcEE15_M_destroy_dataESt15_Deque_iteratorIcRcPcES5_RKS0_
	subl	$12, %esp
	movl	-44(%ebp), %eax
	movl	%eax, %ecx
	call	__ZNSt11_Deque_baseIcSaIcEED2Ev
	nop
	movl	-4(%ebp), %ebx
	leave
	.cfi_restore 5
	.cfi_restore 3
	.cfi_def_cfa 4, 4
	ret
	.cfi_endproc
LFE7967:
	.section	.gcc_except_table,"w"
LLSDA7967:
	.byte	0xff
	.byte	0xff
	.byte	0x1
	.uleb128 LLSDACSE7967-LLSDACSB7967
LLSDACSB7967:
LLSDACSE7967:
	.section	.text$_ZNSt5dequeIcSaIcEED1Ev,"x"
	.linkonce discard
	.section	.text$_ZSt4moveIRSt5dequeIcSaIcEEEONSt16remove_referenceIT_E4typeEOS5_,"x"
	.linkonce discard
	.globl	__ZSt4moveIRSt5dequeIcSaIcEEEONSt16remove_referenceIT_E4typeEOS5_
	.def	__ZSt4moveIRSt5dequeIcSaIcEEEONSt16remove_referenceIT_E4typeEOS5_;	.scl	2;	.type	32;	.endef
__ZSt4moveIRSt5dequeIcSaIcEEEONSt16remove_referenceIT_E4typeEOS5_:
LFB7969:
	.cfi_startproc
	pushl	%ebp
	.cfi_def_cfa_offset 8
	.cfi_offset 5, -8
	movl	%esp, %ebp
	.cfi_def_cfa_register 5
	movl	8(%ebp), %eax
	popl	%ebp
	.cfi_restore 5
	.cfi_def_cfa 4, 4
	ret
	.cfi_endproc
LFE7969:
	.section	.text$_ZNSt5stackIcSt5dequeIcSaIcEEEC1EOS2_,"x"
	.linkonce discard
	.align 2
	.globl	__ZNSt5stackIcSt5dequeIcSaIcEEEC1EOS2_
	.def	__ZNSt5stackIcSt5dequeIcSaIcEEEC1EOS2_;	.scl	2;	.type	32;	.endef
__ZNSt5stackIcSt5dequeIcSaIcEEEC1EOS2_:
LFB7971:
	.cfi_startproc
	pushl	%ebp
	.cfi_def_cfa_offset 8
	.cfi_offset 5, -8
	movl	%esp, %ebp
	.cfi_def_cfa_register 5
	subl	$40, %esp
	movl	%ecx, -12(%ebp)
	movl	8(%ebp), %eax
	movl	%eax, (%esp)
	call	__ZSt4moveIRSt5dequeIcSaIcEEEONSt16remove_referenceIT_E4typeEOS5_
	movl	%eax, %edx
	movl	-12(%ebp), %eax
	movl	%edx, (%esp)
	movl	%eax, %ecx
	call	__ZNSt5dequeIcSaIcEEC1EOS1_
	subl	$4, %esp
	nop
	leave
	.cfi_restore 5
	.cfi_def_cfa 4, 4
	ret	$4
	.cfi_endproc
LFE7971:
	.section	.text$_ZNSt5stackIcSt5dequeIcSaIcEEE4pushERKc,"x"
	.linkonce discard
	.align 2
	.globl	__ZNSt5stackIcSt5dequeIcSaIcEEE4pushERKc
	.def	__ZNSt5stackIcSt5dequeIcSaIcEEE4pushERKc;	.scl	2;	.type	32;	.endef
__ZNSt5stackIcSt5dequeIcSaIcEEE4pushERKc:
LFB7973:
	.cfi_startproc
	pushl	%ebp
	.cfi_def_cfa_offset 8
	.cfi_offset 5, -8
	movl	%esp, %ebp
	.cfi_def_cfa_register 5
	subl	$40, %esp
	movl	%ecx, -12(%ebp)
	movl	-12(%ebp), %eax
	movl	8(%ebp), %edx
	movl	%edx, (%esp)
	movl	%eax, %ecx
	call	__ZNSt5dequeIcSaIcEE9push_backERKc
	subl	$4, %esp
	nop
	leave
	.cfi_restore 5
	.cfi_def_cfa 4, 4
	ret	$4
	.cfi_endproc
LFE7973:
	.section	.text$_ZNSt11_Deque_baseIcSaIcEE11_Deque_implD1Ev,"x"
	.linkonce discard
	.align 2
	.globl	__ZNSt11_Deque_baseIcSaIcEE11_Deque_implD1Ev
	.def	__ZNSt11_Deque_baseIcSaIcEE11_Deque_implD1Ev;	.scl	2;	.type	32;	.endef
__ZNSt11_Deque_baseIcSaIcEE11_Deque_implD1Ev:
LFB8086:
	.cfi_startproc
	pushl	%ebp
	.cfi_def_cfa_offset 8
	.cfi_offset 5, -8
	movl	%esp, %ebp
	.cfi_def_cfa_register 5
	subl	$24, %esp
	movl	%ecx, -12(%ebp)
	movl	-12(%ebp), %eax
	movl	%eax, %ecx
	call	__ZNSaIcED2Ev
	nop
	leave
	.cfi_restore 5
	.cfi_def_cfa 4, 4
	ret
	.cfi_endproc
LFE8086:
	.section	.text$_ZNSt11_Deque_baseIcSaIcEEC2Ev,"x"
	.linkonce discard
	.align 2
	.globl	__ZNSt11_Deque_baseIcSaIcEEC2Ev
	.def	__ZNSt11_Deque_baseIcSaIcEEC2Ev;	.scl	2;	.type	32;	.endef
__ZNSt11_Deque_baseIcSaIcEEC2Ev:
LFB8087:
	.cfi_startproc
	.cfi_personality 0,___gxx_personality_v0
	.cfi_lsda 0,LLSDA8087
	pushl	%ebp
	.cfi_def_cfa_offset 8
	.cfi_offset 5, -8
	movl	%esp, %ebp
	.cfi_def_cfa_register 5
	pushl	%ebx
	subl	$36, %esp
	.cfi_offset 3, -12
	movl	%ecx, -12(%ebp)
	movl	-12(%ebp), %eax
	movl	%eax, %ecx
	call	__ZNSt11_Deque_baseIcSaIcEE11_Deque_implC1Ev
	movl	-12(%ebp), %eax
	movl	$0, (%esp)
	movl	%eax, %ecx
LEHB5:
	call	__ZNSt11_Deque_baseIcSaIcEE17_M_initialize_mapEj
LEHE5:
	subl	$4, %esp
	jmp	L37
L36:
	movl	%eax, %ebx
	movl	-12(%ebp), %eax
	movl	%eax, %ecx
	call	__ZNSt11_Deque_baseIcSaIcEE11_Deque_implD1Ev
	movl	%ebx, %eax
	movl	%eax, (%esp)
LEHB6:
	call	__Unwind_Resume
LEHE6:
L37:
	movl	-4(%ebp), %ebx
	leave
	.cfi_restore 5
	.cfi_restore 3
	.cfi_def_cfa 4, 4
	ret
	.cfi_endproc
LFE8087:
	.section	.gcc_except_table,"w"
LLSDA8087:
	.byte	0xff
	.byte	0xff
	.byte	0x1
	.uleb128 LLSDACSE8087-LLSDACSB8087
LLSDACSB8087:
	.uleb128 LEHB5-LFB8087
	.uleb128 LEHE5-LEHB5
	.uleb128 L36-LFB8087
	.uleb128 0
	.uleb128 LEHB6-LFB8087
	.uleb128 LEHE6-LEHB6
	.uleb128 0
	.uleb128 0
LLSDACSE8087:
	.section	.text$_ZNSt11_Deque_baseIcSaIcEEC2Ev,"x"
	.linkonce discard
	.section	.text$_ZNSt11_Deque_baseIcSaIcEED2Ev,"x"
	.linkonce discard
	.align 2
	.globl	__ZNSt11_Deque_baseIcSaIcEED2Ev
	.def	__ZNSt11_Deque_baseIcSaIcEED2Ev;	.scl	2;	.type	32;	.endef
__ZNSt11_Deque_baseIcSaIcEED2Ev:
LFB8090:
	.cfi_startproc
	pushl	%ebp
	.cfi_def_cfa_offset 8
	.cfi_offset 5, -8
	movl	%esp, %ebp
	.cfi_def_cfa_register 5
	subl	$40, %esp
	movl	%ecx, -12(%ebp)
	movl	-12(%ebp), %eax
	movl	(%eax), %eax
	testl	%eax, %eax
	je	L39
	movl	-12(%ebp), %eax
	movl	36(%eax), %eax
	leal	4(%eax), %ecx
	movl	-12(%ebp), %eax
	movl	20(%eax), %edx
	movl	-12(%ebp), %eax
	movl	%ecx, 4(%esp)
	movl	%edx, (%esp)
	movl	%eax, %ecx
	call	__ZNSt11_Deque_baseIcSaIcEE16_M_destroy_nodesEPPcS3_
	subl	$8, %esp
	movl	-12(%ebp), %eax
	movl	4(%eax), %ecx
	movl	-12(%ebp), %eax
	movl	(%eax), %edx
	movl	-12(%ebp), %eax
	movl	%ecx, 4(%esp)
	movl	%edx, (%esp)
	movl	%eax, %ecx
	call	__ZNSt11_Deque_baseIcSaIcEE17_M_deallocate_mapEPPcj
	subl	$8, %esp
L39:
	movl	-12(%ebp), %eax
	movl	%eax, %ecx
	call	__ZNSt11_Deque_baseIcSaIcEE11_Deque_implD1Ev
	nop
	leave
	.cfi_restore 5
	.cfi_def_cfa 4, 4
	ret
	.cfi_endproc
LFE8090:
	.section	.text$_ZNSt5dequeIcSaIcEE5beginEv,"x"
	.linkonce discard
	.align 2
	.globl	__ZNSt5dequeIcSaIcEE5beginEv
	.def	__ZNSt5dequeIcSaIcEE5beginEv;	.scl	2;	.type	32;	.endef
__ZNSt5dequeIcSaIcEE5beginEv:
LFB8092:
	.cfi_startproc
	pushl	%ebp
	.cfi_def_cfa_offset 8
	.cfi_offset 5, -8
	movl	%esp, %ebp
	.cfi_def_cfa_register 5
	subl	$40, %esp
	movl	%ecx, -12(%ebp)
	movl	8(%ebp), %eax
	leal	8(%eax), %edx
	movl	-12(%ebp), %eax
	movl	%edx, (%esp)
	movl	%eax, %ecx
	call	__ZNSt15_Deque_iteratorIcRcPcEC1ERKS2_
	subl	$4, %esp
	movl	-12(%ebp), %eax
	leave
	.cfi_restore 5
	.cfi_def_cfa 4, 4
	ret	$4
	.cfi_endproc
LFE8092:
	.section	.text$_ZNSt5dequeIcSaIcEE3endEv,"x"
	.linkonce discard
	.align 2
	.globl	__ZNSt5dequeIcSaIcEE3endEv
	.def	__ZNSt5dequeIcSaIcEE3endEv;	.scl	2;	.type	32;	.endef
__ZNSt5dequeIcSaIcEE3endEv:
LFB8093:
	.cfi_startproc
	pushl	%ebp
	.cfi_def_cfa_offset 8
	.cfi_offset 5, -8
	movl	%esp, %ebp
	.cfi_def_cfa_register 5
	subl	$40, %esp
	movl	%ecx, -12(%ebp)
	movl	8(%ebp), %eax
	leal	24(%eax), %edx
	movl	-12(%ebp), %eax
	movl	%edx, (%esp)
	movl	%eax, %ecx
	call	__ZNSt15_Deque_iteratorIcRcPcEC1ERKS2_
	subl	$4, %esp
	movl	-12(%ebp), %eax
	leave
	.cfi_restore 5
	.cfi_def_cfa 4, 4
	ret	$4
	.cfi_endproc
LFE8093:
	.section	.text$_ZNSt11_Deque_baseIcSaIcEE19_M_get_Tp_allocatorEv,"x"
	.linkonce discard
	.align 2
	.globl	__ZNSt11_Deque_baseIcSaIcEE19_M_get_Tp_allocatorEv
	.def	__ZNSt11_Deque_baseIcSaIcEE19_M_get_Tp_allocatorEv;	.scl	2;	.type	32;	.endef
__ZNSt11_Deque_baseIcSaIcEE19_M_get_Tp_allocatorEv:
LFB8094:
	.cfi_startproc
	pushl	%ebp
	.cfi_def_cfa_offset 8
	.cfi_offset 5, -8
	movl	%esp, %ebp
	.cfi_def_cfa_register 5
	subl	$4, %esp
	movl	%ecx, -4(%ebp)
	movl	-4(%ebp), %eax
	leave
	.cfi_restore 5
	.cfi_def_cfa 4, 4
	ret
	.cfi_endproc
LFE8094:
	.section	.text$_ZNSt15_Deque_iteratorIcRcPcEC1ERKS2_,"x"
	.linkonce discard
	.align 2
	.globl	__ZNSt15_Deque_iteratorIcRcPcEC1ERKS2_
	.def	__ZNSt15_Deque_iteratorIcRcPcEC1ERKS2_;	.scl	2;	.type	32;	.endef
__ZNSt15_Deque_iteratorIcRcPcEC1ERKS2_:
LFB8097:
	.cfi_startproc
	pushl	%ebp
	.cfi_def_cfa_offset 8
	.cfi_offset 5, -8
	movl	%esp, %ebp
	.cfi_def_cfa_register 5
	subl	$4, %esp
	movl	%ecx, -4(%ebp)
	movl	8(%ebp), %eax
	movl	(%eax), %edx
	movl	-4(%ebp), %eax
	movl	%edx, (%eax)
	movl	8(%ebp), %eax
	movl	4(%eax), %edx
	movl	-4(%ebp), %eax
	movl	%edx, 4(%eax)
	movl	8(%ebp), %eax
	movl	8(%eax), %edx
	movl	-4(%ebp), %eax
	movl	%edx, 8(%eax)
	movl	8(%ebp), %eax
	movl	12(%eax), %edx
	movl	-4(%ebp), %eax
	movl	%edx, 12(%eax)
	nop
	leave
	.cfi_restore 5
	.cfi_def_cfa 4, 4
	ret	$4
	.cfi_endproc
LFE8097:
	.section	.text$_ZNSt5dequeIcSaIcEE15_M_destroy_dataESt15_Deque_iteratorIcRcPcES5_RKS0_,"x"
	.linkonce discard
	.align 2
	.globl	__ZNSt5dequeIcSaIcEE15_M_destroy_dataESt15_Deque_iteratorIcRcPcES5_RKS0_
	.def	__ZNSt5dequeIcSaIcEE15_M_destroy_dataESt15_Deque_iteratorIcRcPcES5_RKS0_;	.scl	2;	.type	32;	.endef
__ZNSt5dequeIcSaIcEE15_M_destroy_dataESt15_Deque_iteratorIcRcPcES5_RKS0_:
LFB8098:
	.cfi_startproc
	pushl	%ebp
	.cfi_def_cfa_offset 8
	.cfi_offset 5, -8
	movl	%esp, %ebp
	.cfi_def_cfa_register 5
	subl	$36, %esp
	movl	%ecx, -36(%ebp)
	nop
	leave
	.cfi_restore 5
	.cfi_def_cfa 4, 4
	ret	$12
	.cfi_endproc
LFE8098:
	.section	.text$_ZNSt5dequeIcSaIcEEC1EOS1_,"x"
	.linkonce discard
	.align 2
	.globl	__ZNSt5dequeIcSaIcEEC1EOS1_
	.def	__ZNSt5dequeIcSaIcEEC1EOS1_;	.scl	2;	.type	32;	.endef
__ZNSt5dequeIcSaIcEEC1EOS1_:
LFB8101:
	.cfi_startproc
	pushl	%ebp
	.cfi_def_cfa_offset 8
	.cfi_offset 5, -8
	movl	%esp, %ebp
	.cfi_def_cfa_register 5
	subl	$40, %esp
	movl	%ecx, -12(%ebp)
	movl	8(%ebp), %eax
	movl	%eax, (%esp)
	call	__ZSt4moveIRSt5dequeIcSaIcEEEONSt16remove_referenceIT_E4typeEOS5_
	movl	%eax, %edx
	movl	-12(%ebp), %eax
	movl	%edx, (%esp)
	movl	%eax, %ecx
	call	__ZNSt11_Deque_baseIcSaIcEEC2EOS1_
	subl	$4, %esp
	nop
	leave
	.cfi_restore 5
	.cfi_def_cfa 4, 4
	ret	$4
	.cfi_endproc
LFE8101:
	.section	.text$_ZNSt5dequeIcSaIcEE9push_backERKc,"x"
	.linkonce discard
	.align 2
	.globl	__ZNSt5dequeIcSaIcEE9push_backERKc
	.def	__ZNSt5dequeIcSaIcEE9push_backERKc;	.scl	2;	.type	32;	.endef
__ZNSt5dequeIcSaIcEE9push_backERKc:
LFB8102:
	.cfi_startproc
	pushl	%ebp
	.cfi_def_cfa_offset 8
	.cfi_offset 5, -8
	movl	%esp, %ebp
	.cfi_def_cfa_register 5
	subl	$40, %esp
	movl	%ecx, -12(%ebp)
	movl	-12(%ebp), %eax
	movl	24(%eax), %edx
	movl	-12(%ebp), %eax
	movl	32(%eax), %eax
	subl	$1, %eax
	cmpl	%eax, %edx
	je	L50
	movl	-12(%ebp), %eax
	movl	24(%eax), %edx
	movl	-12(%ebp), %eax
	movl	8(%ebp), %ecx
	movl	%ecx, 8(%esp)
	movl	%edx, 4(%esp)
	movl	%eax, (%esp)
	call	__ZNSt16allocator_traitsISaIcEE9constructIcJRKcEEEvRS0_PT_DpOT0_
	movl	-12(%ebp), %eax
	movl	24(%eax), %eax
	leal	1(%eax), %edx
	movl	-12(%ebp), %eax
	movl	%edx, 24(%eax)
	jmp	L52
L50:
	movl	-12(%ebp), %eax
	movl	8(%ebp), %edx
	movl	%edx, (%esp)
	movl	%eax, %ecx
	call	__ZNSt5dequeIcSaIcEE16_M_push_back_auxIJRKcEEEvDpOT_
	subl	$4, %esp
L52:
	nop
	leave
	.cfi_restore 5
	.cfi_def_cfa 4, 4
	ret	$4
	.cfi_endproc
LFE8102:
	.section	.text$_ZNSt11_Deque_baseIcSaIcEE11_Deque_implC1Ev,"x"
	.linkonce discard
	.align 2
	.globl	__ZNSt11_Deque_baseIcSaIcEE11_Deque_implC1Ev
	.def	__ZNSt11_Deque_baseIcSaIcEE11_Deque_implC1Ev;	.scl	2;	.type	32;	.endef
__ZNSt11_Deque_baseIcSaIcEE11_Deque_implC1Ev:
LFB8147:
	.cfi_startproc
	pushl	%ebp
	.cfi_def_cfa_offset 8
	.cfi_offset 5, -8
	movl	%esp, %ebp
	.cfi_def_cfa_register 5
	subl	$24, %esp
	movl	%ecx, -12(%ebp)
	movl	-12(%ebp), %eax
	movl	%eax, %ecx
	call	__ZNSaIcEC2Ev
	movl	-12(%ebp), %eax
	movl	$0, (%eax)
	movl	-12(%ebp), %eax
	movl	$0, 4(%eax)
	movl	-12(%ebp), %eax
	addl	$8, %eax
	movl	%eax, %ecx
	call	__ZNSt15_Deque_iteratorIcRcPcEC1Ev
	movl	-12(%ebp), %eax
	addl	$24, %eax
	movl	%eax, %ecx
	call	__ZNSt15_Deque_iteratorIcRcPcEC1Ev
	nop
	leave
	.cfi_restore 5
	.cfi_def_cfa 4, 4
	ret
	.cfi_endproc
LFE8147:
	.section	.text$_ZSt3maxIjERKT_S2_S2_,"x"
	.linkonce discard
	.globl	__ZSt3maxIjERKT_S2_S2_
	.def	__ZSt3maxIjERKT_S2_S2_;	.scl	2;	.type	32;	.endef
__ZSt3maxIjERKT_S2_S2_:
LFB8149:
	.cfi_startproc
	pushl	%ebp
	.cfi_def_cfa_offset 8
	.cfi_offset 5, -8
	movl	%esp, %ebp
	.cfi_def_cfa_register 5
	movl	8(%ebp), %eax
	movl	(%eax), %edx
	movl	12(%ebp), %eax
	movl	(%eax), %eax
	cmpl	%eax, %edx
	jnb	L55
	movl	12(%ebp), %eax
	jmp	L56
L55:
	movl	8(%ebp), %eax
L56:
	popl	%ebp
	.cfi_restore 5
	.cfi_def_cfa 4, 4
	ret
	.cfi_endproc
LFE8149:
	.section	.text$_ZNSt11_Deque_baseIcSaIcEE17_M_initialize_mapEj,"x"
	.linkonce discard
	.align 2
	.globl	__ZNSt11_Deque_baseIcSaIcEE17_M_initialize_mapEj
	.def	__ZNSt11_Deque_baseIcSaIcEE17_M_initialize_mapEj;	.scl	2;	.type	32;	.endef
__ZNSt11_Deque_baseIcSaIcEE17_M_initialize_mapEj:
LFB8148:
	.cfi_startproc
	.cfi_personality 0,___gxx_personality_v0
	.cfi_lsda 0,LLSDA8148
	pushl	%ebp
	.cfi_def_cfa_offset 8
	.cfi_offset 5, -8
	movl	%esp, %ebp
	.cfi_def_cfa_register 5
	pushl	%ebx
	subl	$68, %esp
	.cfi_offset 3, -12
	movl	%ecx, -44(%ebp)
	movl	$1, (%esp)
	call	__ZSt16__deque_buf_sizej
	movl	%eax, %ebx
	movl	8(%ebp), %eax
	movl	$0, %edx
	divl	%ebx
	addl	$1, %eax
	movl	%eax, -12(%ebp)
	movl	-12(%ebp), %eax
	addl	$2, %eax
	movl	%eax, -28(%ebp)
	movl	$8, -24(%ebp)
	leal	-28(%ebp), %eax
	movl	%eax, 4(%esp)
	leal	-24(%ebp), %eax
	movl	%eax, (%esp)
	call	__ZSt3maxIjERKT_S2_S2_
	movl	(%eax), %edx
	movl	-44(%ebp), %eax
	movl	%edx, 4(%eax)
	movl	-44(%ebp), %eax
	movl	4(%eax), %edx
	movl	-44(%ebp), %eax
	movl	%edx, (%esp)
	movl	%eax, %ecx
LEHB7:
	call	__ZNSt11_Deque_baseIcSaIcEE15_M_allocate_mapEj
LEHE7:
	subl	$4, %esp
	movl	%eax, %edx
	movl	-44(%ebp), %eax
	movl	%edx, (%eax)
	movl	-44(%ebp), %eax
	movl	(%eax), %edx
	movl	-44(%ebp), %eax
	movl	4(%eax), %eax
	subl	-12(%ebp), %eax
	shrl	%eax
	sall	$2, %eax
	addl	%edx, %eax
	movl	%eax, -16(%ebp)
	movl	-12(%ebp), %eax
	leal	0(,%eax,4), %edx
	movl	-16(%ebp), %eax
	addl	%edx, %eax
	movl	%eax, -20(%ebp)
	movl	-44(%ebp), %eax
	movl	-20(%ebp), %edx
	movl	%edx, 4(%esp)
	movl	-16(%ebp), %edx
	movl	%edx, (%esp)
	movl	%eax, %ecx
LEHB8:
	call	__ZNSt11_Deque_baseIcSaIcEE15_M_create_nodesEPPcS3_
LEHE8:
	subl	$8, %esp
	movl	-44(%ebp), %eax
	leal	8(%eax), %edx
	movl	-16(%ebp), %eax
	movl	%eax, (%esp)
	movl	%edx, %ecx
	call	__ZNSt15_Deque_iteratorIcRcPcE11_M_set_nodeEPS1_
	subl	$4, %esp
	movl	-20(%ebp), %eax
	leal	-4(%eax), %edx
	movl	-44(%ebp), %eax
	addl	$24, %eax
	movl	%edx, (%esp)
	movl	%eax, %ecx
	call	__ZNSt15_Deque_iteratorIcRcPcE11_M_set_nodeEPS1_
	subl	$4, %esp
	movl	-44(%ebp), %eax
	movl	12(%eax), %edx
	movl	-44(%ebp), %eax
	movl	%edx, 8(%eax)
	movl	-44(%ebp), %eax
	movl	28(%eax), %ebx
	movl	$1, (%esp)
	call	__ZSt16__deque_buf_sizej
	movl	%eax, %ecx
	movl	8(%ebp), %eax
	movl	$0, %edx
	divl	%ecx
	movl	%edx, %eax
	leal	(%ebx,%eax), %edx
	movl	-44(%ebp), %eax
	movl	%edx, 24(%eax)
	jmp	L62
L60:
	movl	%eax, (%esp)
	call	___cxa_begin_catch
	movl	-44(%ebp), %eax
	movl	4(%eax), %ecx
	movl	-44(%ebp), %eax
	movl	(%eax), %edx
	movl	-44(%ebp), %eax
	movl	%ecx, 4(%esp)
	movl	%edx, (%esp)
	movl	%eax, %ecx
	call	__ZNSt11_Deque_baseIcSaIcEE17_M_deallocate_mapEPPcj
	subl	$8, %esp
	movl	-44(%ebp), %eax
	movl	$0, (%eax)
	movl	-44(%ebp), %eax
	movl	$0, 4(%eax)
LEHB9:
	call	___cxa_rethrow
LEHE9:
L61:
	movl	%eax, %ebx
	call	___cxa_end_catch
	movl	%ebx, %eax
	movl	%eax, (%esp)
LEHB10:
	call	__Unwind_Resume
LEHE10:
L62:
	movl	-4(%ebp), %ebx
	leave
	.cfi_restore 5
	.cfi_restore 3
	.cfi_def_cfa 4, 4
	ret	$4
	.cfi_endproc
LFE8148:
	.section	.gcc_except_table,"w"
	.align 4
LLSDA8148:
	.byte	0xff
	.byte	0
	.uleb128 LLSDATT8148-LLSDATTD8148
LLSDATTD8148:
	.byte	0x1
	.uleb128 LLSDACSE8148-LLSDACSB8148
LLSDACSB8148:
	.uleb128 LEHB7-LFB8148
	.uleb128 LEHE7-LEHB7
	.uleb128 0
	.uleb128 0
	.uleb128 LEHB8-LFB8148
	.uleb128 LEHE8-LEHB8
	.uleb128 L60-LFB8148
	.uleb128 0x1
	.uleb128 LEHB9-LFB8148
	.uleb128 LEHE9-LEHB9
	.uleb128 L61-LFB8148
	.uleb128 0
	.uleb128 LEHB10-LFB8148
	.uleb128 LEHE10-LEHB10
	.uleb128 0
	.uleb128 0
LLSDACSE8148:
	.byte	0x1
	.byte	0
	.align 4
	.long	0
LLSDATT8148:
	.section	.text$_ZNSt11_Deque_baseIcSaIcEE17_M_initialize_mapEj,"x"
	.linkonce discard
	.section	.text$_ZNSt11_Deque_baseIcSaIcEE16_M_destroy_nodesEPPcS3_,"x"
	.linkonce discard
	.align 2
	.globl	__ZNSt11_Deque_baseIcSaIcEE16_M_destroy_nodesEPPcS3_
	.def	__ZNSt11_Deque_baseIcSaIcEE16_M_destroy_nodesEPPcS3_;	.scl	2;	.type	32;	.endef
__ZNSt11_Deque_baseIcSaIcEE16_M_destroy_nodesEPPcS3_:
LFB8150:
	.cfi_startproc
	pushl	%ebp
	.cfi_def_cfa_offset 8
	.cfi_offset 5, -8
	movl	%esp, %ebp
	.cfi_def_cfa_register 5
	subl	$56, %esp
	movl	%ecx, -28(%ebp)
	movl	8(%ebp), %eax
	movl	%eax, -12(%ebp)
L65:
	movl	-12(%ebp), %eax
	cmpl	12(%ebp), %eax
	jnb	L66
	movl	-12(%ebp), %eax
	movl	(%eax), %edx
	movl	-28(%ebp), %eax
	movl	%edx, (%esp)
	movl	%eax, %ecx
	call	__ZNSt11_Deque_baseIcSaIcEE18_M_deallocate_nodeEPc
	subl	$4, %esp
	addl	$4, -12(%ebp)
	jmp	L65
L66:
	nop
	leave
	.cfi_restore 5
	.cfi_def_cfa 4, 4
	ret	$8
	.cfi_endproc
LFE8150:
	.section	.text$_ZNSt11_Deque_baseIcSaIcEE17_M_deallocate_mapEPPcj,"x"
	.linkonce discard
	.align 2
	.globl	__ZNSt11_Deque_baseIcSaIcEE17_M_deallocate_mapEPPcj
	.def	__ZNSt11_Deque_baseIcSaIcEE17_M_deallocate_mapEPPcj;	.scl	2;	.type	32;	.endef
__ZNSt11_Deque_baseIcSaIcEE17_M_deallocate_mapEPPcj:
LFB8151:
	.cfi_startproc
	.cfi_personality 0,___gxx_personality_v0
	.cfi_lsda 0,LLSDA8151
	pushl	%ebp
	.cfi_def_cfa_offset 8
	.cfi_offset 5, -8
	movl	%esp, %ebp
	.cfi_def_cfa_register 5
	subl	$56, %esp
	movl	%ecx, -28(%ebp)
	leal	-9(%ebp), %eax
	movl	-28(%ebp), %edx
	movl	%edx, (%esp)
	movl	%eax, %ecx
	call	__ZNKSt11_Deque_baseIcSaIcEE20_M_get_map_allocatorEv
	subl	$4, %esp
	movl	12(%ebp), %eax
	movl	%eax, 8(%esp)
	movl	8(%ebp), %eax
	movl	%eax, 4(%esp)
	leal	-9(%ebp), %eax
	movl	%eax, (%esp)
	call	__ZNSt16allocator_traitsISaIPcEE10deallocateERS1_PS0_j
	leal	-9(%ebp), %eax
	movl	%eax, %ecx
	call	__ZNSaIPcED1Ev
	nop
	leave
	.cfi_restore 5
	.cfi_def_cfa 4, 4
	ret	$8
	.cfi_endproc
LFE8151:
	.section	.gcc_except_table,"w"
LLSDA8151:
	.byte	0xff
	.byte	0xff
	.byte	0x1
	.uleb128 LLSDACSE8151-LLSDACSB8151
LLSDACSB8151:
LLSDACSE8151:
	.section	.text$_ZNSt11_Deque_baseIcSaIcEE17_M_deallocate_mapEPPcj,"x"
	.linkonce discard
	.section	.text$_ZSt4moveIRSt11_Deque_baseIcSaIcEEEONSt16remove_referenceIT_E4typeEOS5_,"x"
	.linkonce discard
	.globl	__ZSt4moveIRSt11_Deque_baseIcSaIcEEEONSt16remove_referenceIT_E4typeEOS5_
	.def	__ZSt4moveIRSt11_Deque_baseIcSaIcEEEONSt16remove_referenceIT_E4typeEOS5_;	.scl	2;	.type	32;	.endef
__ZSt4moveIRSt11_Deque_baseIcSaIcEEEONSt16remove_referenceIT_E4typeEOS5_:
LFB8154:
	.cfi_startproc
	pushl	%ebp
	.cfi_def_cfa_offset 8
	.cfi_offset 5, -8
	movl	%esp, %ebp
	.cfi_def_cfa_register 5
	movl	8(%ebp), %eax
	popl	%ebp
	.cfi_restore 5
	.cfi_def_cfa 4, 4
	ret
	.cfi_endproc
LFE8154:
	.section	.text$_ZNSt11_Deque_baseIcSaIcEEC2EOS1_,"x"
	.linkonce discard
	.align 2
	.globl	__ZNSt11_Deque_baseIcSaIcEEC2EOS1_
	.def	__ZNSt11_Deque_baseIcSaIcEEC2EOS1_;	.scl	2;	.type	32;	.endef
__ZNSt11_Deque_baseIcSaIcEEC2EOS1_:
LFB8155:
	.cfi_startproc
	pushl	%ebp
	.cfi_def_cfa_offset 8
	.cfi_offset 5, -8
	movl	%esp, %ebp
	.cfi_def_cfa_register 5
	pushl	%ebx
	subl	$52, %esp
	.cfi_offset 3, -12
	movl	%ecx, -28(%ebp)
	movl	8(%ebp), %eax
	movl	%eax, (%esp)
	call	__ZSt4moveIRSt11_Deque_baseIcSaIcEEEONSt16remove_referenceIT_E4typeEOS5_
	movl	%eax, %edx
	movl	-28(%ebp), %eax
	movb	%bl, 4(%esp)
	movl	%edx, (%esp)
	movl	%eax, %ecx
	call	__ZNSt11_Deque_baseIcSaIcEEC1EOS1_St17integral_constantIbLb1EE
	subl	$8, %esp
	nop
	movl	-4(%ebp), %ebx
	leave
	.cfi_restore 5
	.cfi_restore 3
	.cfi_def_cfa 4, 4
	ret	$4
	.cfi_endproc
LFE8155:
	.section	.text$_ZSt7forwardIRKcEOT_RNSt16remove_referenceIS2_E4typeE,"x"
	.linkonce discard
	.globl	__ZSt7forwardIRKcEOT_RNSt16remove_referenceIS2_E4typeE
	.def	__ZSt7forwardIRKcEOT_RNSt16remove_referenceIS2_E4typeE;	.scl	2;	.type	32;	.endef
__ZSt7forwardIRKcEOT_RNSt16remove_referenceIS2_E4typeE:
LFB8158:
	.cfi_startproc
	pushl	%ebp
	.cfi_def_cfa_offset 8
	.cfi_offset 5, -8
	movl	%esp, %ebp
	.cfi_def_cfa_register 5
	movl	8(%ebp), %eax
	popl	%ebp
	.cfi_restore 5
	.cfi_def_cfa 4, 4
	ret
	.cfi_endproc
LFE8158:
	.section	.text$_ZNSt16allocator_traitsISaIcEE9constructIcJRKcEEEvRS0_PT_DpOT0_,"x"
	.linkonce discard
	.globl	__ZNSt16allocator_traitsISaIcEE9constructIcJRKcEEEvRS0_PT_DpOT0_
	.def	__ZNSt16allocator_traitsISaIcEE9constructIcJRKcEEEvRS0_PT_DpOT0_;	.scl	2;	.type	32;	.endef
__ZNSt16allocator_traitsISaIcEE9constructIcJRKcEEEvRS0_PT_DpOT0_:
LFB8157:
	.cfi_startproc
	pushl	%ebp
	.cfi_def_cfa_offset 8
	.cfi_offset 5, -8
	movl	%esp, %ebp
	.cfi_def_cfa_register 5
	subl	$24, %esp
	movl	16(%ebp), %eax
	movl	%eax, (%esp)
	call	__ZSt7forwardIRKcEOT_RNSt16remove_referenceIS2_E4typeE
	movl	%eax, 4(%esp)
	movl	12(%ebp), %eax
	movl	%eax, (%esp)
	movl	8(%ebp), %ecx
	call	__ZN9__gnu_cxx13new_allocatorIcE9constructIcJRKcEEEvPT_DpOT0_
	subl	$8, %esp
	nop
	leave
	.cfi_restore 5
	.cfi_def_cfa 4, 4
	ret
	.cfi_endproc
LFE8157:
	.section	.text$_ZNSt5dequeIcSaIcEE16_M_push_back_auxIJRKcEEEvDpOT_,"x"
	.linkonce discard
	.align 2
	.globl	__ZNSt5dequeIcSaIcEE16_M_push_back_auxIJRKcEEEvDpOT_
	.def	__ZNSt5dequeIcSaIcEE16_M_push_back_auxIJRKcEEEvDpOT_;	.scl	2;	.type	32;	.endef
__ZNSt5dequeIcSaIcEE16_M_push_back_auxIJRKcEEEvDpOT_:
LFB8159:
	.cfi_startproc
	pushl	%ebp
	.cfi_def_cfa_offset 8
	.cfi_offset 5, -8
	movl	%esp, %ebp
	.cfi_def_cfa_register 5
	pushl	%ebx
	subl	$36, %esp
	.cfi_offset 3, -12
	movl	%ecx, -12(%ebp)
	movl	-12(%ebp), %eax
	movl	$1, (%esp)
	movl	%eax, %ecx
	call	__ZNSt5dequeIcSaIcEE22_M_reserve_map_at_backEj
	subl	$4, %esp
	movl	-12(%ebp), %eax
	movl	36(%eax), %eax
	leal	4(%eax), %ebx
	movl	-12(%ebp), %eax
	movl	%eax, %ecx
	call	__ZNSt11_Deque_baseIcSaIcEE16_M_allocate_nodeEv
	movl	%eax, (%ebx)
	movl	8(%ebp), %eax
	movl	%eax, (%esp)
	call	__ZSt7forwardIRKcEOT_RNSt16remove_referenceIS2_E4typeE
	movl	%eax, %ecx
	movl	-12(%ebp), %eax
	movl	24(%eax), %edx
	movl	-12(%ebp), %eax
	movl	%ecx, 8(%esp)
	movl	%edx, 4(%esp)
	movl	%eax, (%esp)
	call	__ZNSt16allocator_traitsISaIcEE9constructIcJRKcEEEvRS0_PT_DpOT0_
	movl	-12(%ebp), %eax
	movl	36(%eax), %eax
	leal	4(%eax), %edx
	movl	-12(%ebp), %eax
	addl	$24, %eax
	movl	%edx, (%esp)
	movl	%eax, %ecx
	call	__ZNSt15_Deque_iteratorIcRcPcE11_M_set_nodeEPS1_
	subl	$4, %esp
	movl	-12(%ebp), %eax
	movl	28(%eax), %edx
	movl	-12(%ebp), %eax
	movl	%edx, 24(%eax)
	nop
	movl	-4(%ebp), %ebx
	leave
	.cfi_restore 5
	.cfi_restore 3
	.cfi_def_cfa 4, 4
	ret	$4
	.cfi_endproc
LFE8159:
	.section	.text$_ZNSt16allocator_traitsISaIcEE10deallocateERS0_Pcj,"x"
	.linkonce discard
	.globl	__ZNSt16allocator_traitsISaIcEE10deallocateERS0_Pcj
	.def	__ZNSt16allocator_traitsISaIcEE10deallocateERS0_Pcj;	.scl	2;	.type	32;	.endef
__ZNSt16allocator_traitsISaIcEE10deallocateERS0_Pcj:
LFB8161:
	.cfi_startproc
	pushl	%ebp
	.cfi_def_cfa_offset 8
	.cfi_offset 5, -8
	movl	%esp, %ebp
	.cfi_def_cfa_register 5
	subl	$24, %esp
	movl	16(%ebp), %eax
	movl	%eax, 4(%esp)
	movl	12(%ebp), %eax
	movl	%eax, (%esp)
	movl	8(%ebp), %ecx
	call	__ZN9__gnu_cxx13new_allocatorIcE10deallocateEPcj
	subl	$8, %esp
	nop
	leave
	.cfi_restore 5
	.cfi_def_cfa 4, 4
	ret
	.cfi_endproc
LFE8161:
	.section	.text$_ZNSt15_Deque_iteratorIcRcPcEC1Ev,"x"
	.linkonce discard
	.align 2
	.globl	__ZNSt15_Deque_iteratorIcRcPcEC1Ev
	.def	__ZNSt15_Deque_iteratorIcRcPcEC1Ev;	.scl	2;	.type	32;	.endef
__ZNSt15_Deque_iteratorIcRcPcEC1Ev:
LFB8203:
	.cfi_startproc
	pushl	%ebp
	.cfi_def_cfa_offset 8
	.cfi_offset 5, -8
	movl	%esp, %ebp
	.cfi_def_cfa_register 5
	subl	$4, %esp
	movl	%ecx, -4(%ebp)
	movl	-4(%ebp), %eax
	movl	$0, (%eax)
	movl	-4(%ebp), %eax
	movl	$0, 4(%eax)
	movl	-4(%ebp), %eax
	movl	$0, 8(%eax)
	movl	-4(%ebp), %eax
	movl	$0, 12(%eax)
	nop
	leave
	.cfi_restore 5
	.cfi_def_cfa 4, 4
	ret
	.cfi_endproc
LFE8203:
	.section	.text$_ZNSt11_Deque_baseIcSaIcEE15_M_allocate_mapEj,"x"
	.linkonce discard
	.align 2
	.globl	__ZNSt11_Deque_baseIcSaIcEE15_M_allocate_mapEj
	.def	__ZNSt11_Deque_baseIcSaIcEE15_M_allocate_mapEj;	.scl	2;	.type	32;	.endef
__ZNSt11_Deque_baseIcSaIcEE15_M_allocate_mapEj:
LFB8204:
	.cfi_startproc
	.cfi_personality 0,___gxx_personality_v0
	.cfi_lsda 0,LLSDA8204
	pushl	%ebp
	.cfi_def_cfa_offset 8
	.cfi_offset 5, -8
	movl	%esp, %ebp
	.cfi_def_cfa_register 5
	pushl	%ebx
	subl	$52, %esp
	.cfi_offset 3, -12
	movl	%ecx, -28(%ebp)
	leal	-9(%ebp), %eax
	movl	-28(%ebp), %edx
	movl	%edx, (%esp)
	movl	%eax, %ecx
	call	__ZNKSt11_Deque_baseIcSaIcEE20_M_get_map_allocatorEv
	subl	$4, %esp
	movl	8(%ebp), %eax
	movl	%eax, 4(%esp)
	leal	-9(%ebp), %eax
	movl	%eax, (%esp)
LEHB11:
	call	__ZNSt16allocator_traitsISaIPcEE8allocateERS1_j
LEHE11:
	movl	%eax, %ebx
	leal	-9(%ebp), %eax
	movl	%eax, %ecx
	call	__ZNSaIPcED1Ev
	movl	%ebx, %eax
	jmp	L81
L80:
	movl	%eax, %ebx
	leal	-9(%ebp), %eax
	movl	%eax, %ecx
	call	__ZNSaIPcED1Ev
	movl	%ebx, %eax
	movl	%eax, (%esp)
LEHB12:
	call	__Unwind_Resume
LEHE12:
L81:
	movl	-4(%ebp), %ebx
	leave
	.cfi_restore 5
	.cfi_restore 3
	.cfi_def_cfa 4, 4
	ret	$4
	.cfi_endproc
LFE8204:
	.section	.gcc_except_table,"w"
LLSDA8204:
	.byte	0xff
	.byte	0xff
	.byte	0x1
	.uleb128 LLSDACSE8204-LLSDACSB8204
LLSDACSB8204:
	.uleb128 LEHB11-LFB8204
	.uleb128 LEHE11-LEHB11
	.uleb128 L80-LFB8204
	.uleb128 0
	.uleb128 LEHB12-LFB8204
	.uleb128 LEHE12-LEHB12
	.uleb128 0
	.uleb128 0
LLSDACSE8204:
	.section	.text$_ZNSt11_Deque_baseIcSaIcEE15_M_allocate_mapEj,"x"
	.linkonce discard
	.section	.text$_ZNSt11_Deque_baseIcSaIcEE15_M_create_nodesEPPcS3_,"x"
	.linkonce discard
	.align 2
	.globl	__ZNSt11_Deque_baseIcSaIcEE15_M_create_nodesEPPcS3_
	.def	__ZNSt11_Deque_baseIcSaIcEE15_M_create_nodesEPPcS3_;	.scl	2;	.type	32;	.endef
__ZNSt11_Deque_baseIcSaIcEE15_M_create_nodesEPPcS3_:
LFB8205:
	.cfi_startproc
	.cfi_personality 0,___gxx_personality_v0
	.cfi_lsda 0,LLSDA8205
	pushl	%ebp
	.cfi_def_cfa_offset 8
	.cfi_offset 5, -8
	movl	%esp, %ebp
	.cfi_def_cfa_register 5
	pushl	%ebx
	subl	$52, %esp
	.cfi_offset 3, -12
	movl	%ecx, -28(%ebp)
	movl	8(%ebp), %eax
	movl	%eax, -12(%ebp)
L84:
	movl	-12(%ebp), %eax
	cmpl	12(%ebp), %eax
	jnb	L89
	movl	-28(%ebp), %eax
	movl	%eax, %ecx
LEHB13:
	call	__ZNSt11_Deque_baseIcSaIcEE16_M_allocate_nodeEv
LEHE13:
	movl	%eax, %edx
	movl	-12(%ebp), %eax
	movl	%edx, (%eax)
	addl	$4, -12(%ebp)
	jmp	L84
L87:
	movl	%eax, (%esp)
	call	___cxa_begin_catch
	movl	-28(%ebp), %eax
	movl	-12(%ebp), %edx
	movl	%edx, 4(%esp)
	movl	8(%ebp), %edx
	movl	%edx, (%esp)
	movl	%eax, %ecx
	call	__ZNSt11_Deque_baseIcSaIcEE16_M_destroy_nodesEPPcS3_
	subl	$8, %esp
LEHB14:
	call	___cxa_rethrow
LEHE14:
L88:
	movl	%eax, %ebx
	call	___cxa_end_catch
	movl	%ebx, %eax
	movl	%eax, (%esp)
LEHB15:
	call	__Unwind_Resume
LEHE15:
L89:
	nop
	movl	-4(%ebp), %ebx
	leave
	.cfi_restore 5
	.cfi_restore 3
	.cfi_def_cfa 4, 4
	ret	$8
	.cfi_endproc
LFE8205:
	.section	.gcc_except_table,"w"
	.align 4
LLSDA8205:
	.byte	0xff
	.byte	0
	.uleb128 LLSDATT8205-LLSDATTD8205
LLSDATTD8205:
	.byte	0x1
	.uleb128 LLSDACSE8205-LLSDACSB8205
LLSDACSB8205:
	.uleb128 LEHB13-LFB8205
	.uleb128 LEHE13-LEHB13
	.uleb128 L87-LFB8205
	.uleb128 0x1
	.uleb128 LEHB14-LFB8205
	.uleb128 LEHE14-LEHB14
	.uleb128 L88-LFB8205
	.uleb128 0
	.uleb128 LEHB15-LFB8205
	.uleb128 LEHE15-LEHB15
	.uleb128 0
	.uleb128 0
LLSDACSE8205:
	.byte	0x1
	.byte	0
	.align 4
	.long	0
LLSDATT8205:
	.section	.text$_ZNSt11_Deque_baseIcSaIcEE15_M_create_nodesEPPcS3_,"x"
	.linkonce discard
	.section	.text$_ZNSt15_Deque_iteratorIcRcPcE11_M_set_nodeEPS1_,"x"
	.linkonce discard
	.align 2
	.globl	__ZNSt15_Deque_iteratorIcRcPcE11_M_set_nodeEPS1_
	.def	__ZNSt15_Deque_iteratorIcRcPcE11_M_set_nodeEPS1_;	.scl	2;	.type	32;	.endef
__ZNSt15_Deque_iteratorIcRcPcE11_M_set_nodeEPS1_:
LFB8206:
	.cfi_startproc
	pushl	%ebp
	.cfi_def_cfa_offset 8
	.cfi_offset 5, -8
	movl	%esp, %ebp
	.cfi_def_cfa_register 5
	pushl	%ebx
	subl	$20, %esp
	.cfi_offset 3, -12
	movl	%ecx, -12(%ebp)
	movl	-12(%ebp), %eax
	movl	8(%ebp), %edx
	movl	%edx, 12(%eax)
	movl	8(%ebp), %eax
	movl	(%eax), %edx
	movl	-12(%ebp), %eax
	movl	%edx, 4(%eax)
	movl	-12(%ebp), %eax
	movl	4(%eax), %ebx
	call	__ZNSt15_Deque_iteratorIcRcPcE14_S_buffer_sizeEv
	leal	(%ebx,%eax), %edx
	movl	-12(%ebp), %eax
	movl	%edx, 8(%eax)
	nop
	addl	$20, %esp
	popl	%ebx
	.cfi_restore 3
	popl	%ebp
	.cfi_restore 5
	.cfi_def_cfa 4, 4
	ret	$4
	.cfi_endproc
LFE8206:
	.section	.text$_ZNSt11_Deque_baseIcSaIcEE18_M_deallocate_nodeEPc,"x"
	.linkonce discard
	.align 2
	.globl	__ZNSt11_Deque_baseIcSaIcEE18_M_deallocate_nodeEPc
	.def	__ZNSt11_Deque_baseIcSaIcEE18_M_deallocate_nodeEPc;	.scl	2;	.type	32;	.endef
__ZNSt11_Deque_baseIcSaIcEE18_M_deallocate_nodeEPc:
LFB8207:
	.cfi_startproc
	pushl	%ebp
	.cfi_def_cfa_offset 8
	.cfi_offset 5, -8
	movl	%esp, %ebp
	.cfi_def_cfa_register 5
	subl	$40, %esp
	movl	%ecx, -12(%ebp)
	movl	$1, (%esp)
	call	__ZSt16__deque_buf_sizej
	movl	%eax, %edx
	movl	-12(%ebp), %eax
	movl	%edx, 8(%esp)
	movl	8(%ebp), %edx
	movl	%edx, 4(%esp)
	movl	%eax, (%esp)
	call	__ZNSt16allocator_traitsISaIcEE10deallocateERS0_Pcj
	nop
	leave
	.cfi_restore 5
	.cfi_def_cfa 4, 4
	ret	$4
	.cfi_endproc
LFE8207:
	.section	.text$_ZNKSt11_Deque_baseIcSaIcEE20_M_get_map_allocatorEv,"x"
	.linkonce discard
	.align 2
	.globl	__ZNKSt11_Deque_baseIcSaIcEE20_M_get_map_allocatorEv
	.def	__ZNKSt11_Deque_baseIcSaIcEE20_M_get_map_allocatorEv;	.scl	2;	.type	32;	.endef
__ZNKSt11_Deque_baseIcSaIcEE20_M_get_map_allocatorEv:
LFB8208:
	.cfi_startproc
	pushl	%ebp
	.cfi_def_cfa_offset 8
	.cfi_offset 5, -8
	movl	%esp, %ebp
	.cfi_def_cfa_register 5
	subl	$40, %esp
	movl	%ecx, -12(%ebp)
	movl	8(%ebp), %ecx
	call	__ZNKSt11_Deque_baseIcSaIcEE19_M_get_Tp_allocatorEv
	movl	%eax, %edx
	movl	-12(%ebp), %eax
	movl	%edx, (%esp)
	movl	%eax, %ecx
	call	__ZNSaIPcEC1IcEERKSaIT_E
	subl	$4, %esp
	movl	-12(%ebp), %eax
	leave
	.cfi_restore 5
	.cfi_def_cfa 4, 4
	ret	$4
	.cfi_endproc
LFE8208:
	.section	.text$_ZNSaIPcED1Ev,"x"
	.linkonce discard
	.align 2
	.globl	__ZNSaIPcED1Ev
	.def	__ZNSaIPcED1Ev;	.scl	2;	.type	32;	.endef
__ZNSaIPcED1Ev:
LFB8211:
	.cfi_startproc
	pushl	%ebp
	.cfi_def_cfa_offset 8
	.cfi_offset 5, -8
	movl	%esp, %ebp
	.cfi_def_cfa_register 5
	subl	$24, %esp
	movl	%ecx, -12(%ebp)
	movl	-12(%ebp), %eax
	movl	%eax, %ecx
	call	__ZN9__gnu_cxx13new_allocatorIPcED2Ev
	nop
	leave
	.cfi_restore 5
	.cfi_def_cfa 4, 4
	ret
	.cfi_endproc
LFE8211:
	.section	.text$_ZNSt16allocator_traitsISaIPcEE10deallocateERS1_PS0_j,"x"
	.linkonce discard
	.globl	__ZNSt16allocator_traitsISaIPcEE10deallocateERS1_PS0_j
	.def	__ZNSt16allocator_traitsISaIPcEE10deallocateERS1_PS0_j;	.scl	2;	.type	32;	.endef
__ZNSt16allocator_traitsISaIPcEE10deallocateERS1_PS0_j:
LFB8215:
	.cfi_startproc
	pushl	%ebp
	.cfi_def_cfa_offset 8
	.cfi_offset 5, -8
	movl	%esp, %ebp
	.cfi_def_cfa_register 5
	subl	$24, %esp
	movl	16(%ebp), %eax
	movl	%eax, 4(%esp)
	movl	12(%ebp), %eax
	movl	%eax, (%esp)
	movl	8(%ebp), %ecx
	call	__ZN9__gnu_cxx13new_allocatorIPcE10deallocateEPS1_j
	subl	$8, %esp
	nop
	leave
	.cfi_restore 5
	.cfi_def_cfa 4, 4
	ret
	.cfi_endproc
LFE8215:
	.section	.text$_ZNSt11_Deque_baseIcSaIcEEC1EOS1_St17integral_constantIbLb1EE,"x"
	.linkonce discard
	.align 2
	.globl	__ZNSt11_Deque_baseIcSaIcEEC1EOS1_St17integral_constantIbLb1EE
	.def	__ZNSt11_Deque_baseIcSaIcEEC1EOS1_St17integral_constantIbLb1EE;	.scl	2;	.type	32;	.endef
__ZNSt11_Deque_baseIcSaIcEEC1EOS1_St17integral_constantIbLb1EE:
LFB8220:
	.cfi_startproc
	.cfi_personality 0,___gxx_personality_v0
	.cfi_lsda 0,LLSDA8220
	pushl	%ebp
	.cfi_def_cfa_offset 8
	.cfi_offset 5, -8
	movl	%esp, %ebp
	.cfi_def_cfa_register 5
	pushl	%ebx
	subl	$36, %esp
	.cfi_offset 3, -12
	movl	%ecx, -12(%ebp)
	movl	8(%ebp), %ecx
	call	__ZNSt11_Deque_baseIcSaIcEE19_M_get_Tp_allocatorEv
	movl	%eax, (%esp)
	call	__ZSt4moveIRSaIcEEONSt16remove_referenceIT_E4typeEOS3_
	movl	%eax, %edx
	movl	-12(%ebp), %eax
	movl	%edx, (%esp)
	movl	%eax, %ecx
	call	__ZNSt11_Deque_baseIcSaIcEE11_Deque_implC1EOS0_
	subl	$4, %esp
	movl	-12(%ebp), %eax
	movl	$0, (%esp)
	movl	%eax, %ecx
LEHB16:
	call	__ZNSt11_Deque_baseIcSaIcEE17_M_initialize_mapEj
LEHE16:
	subl	$4, %esp
	movl	8(%ebp), %eax
	movl	(%eax), %eax
	testl	%eax, %eax
	je	L100
	movl	8(%ebp), %edx
	movl	-12(%ebp), %eax
	movl	%edx, (%esp)
	movl	%eax, %ecx
	call	__ZNSt11_Deque_baseIcSaIcEE11_Deque_impl12_M_swap_dataERS2_
	subl	$4, %esp
	jmp	L100
L99:
	movl	%eax, %ebx
	movl	-12(%ebp), %eax
	movl	%eax, %ecx
	call	__ZNSt11_Deque_baseIcSaIcEE11_Deque_implD1Ev
	movl	%ebx, %eax
	movl	%eax, (%esp)
LEHB17:
	call	__Unwind_Resume
LEHE17:
L100:
	nop
	movl	-4(%ebp), %ebx
	leave
	.cfi_restore 5
	.cfi_restore 3
	.cfi_def_cfa 4, 4
	ret	$8
	.cfi_endproc
LFE8220:
	.section	.gcc_except_table,"w"
LLSDA8220:
	.byte	0xff
	.byte	0xff
	.byte	0x1
	.uleb128 LLSDACSE8220-LLSDACSB8220
LLSDACSB8220:
	.uleb128 LEHB16-LFB8220
	.uleb128 LEHE16-LEHB16
	.uleb128 L99-LFB8220
	.uleb128 0
	.uleb128 LEHB17-LFB8220
	.uleb128 LEHE17-LEHB17
	.uleb128 0
	.uleb128 0
LLSDACSE8220:
	.section	.text$_ZNSt11_Deque_baseIcSaIcEEC1EOS1_St17integral_constantIbLb1EE,"x"
	.linkonce discard
	.section	.text$_ZN9__gnu_cxx13new_allocatorIcE9constructIcJRKcEEEvPT_DpOT0_,"x"
	.linkonce discard
	.align 2
	.globl	__ZN9__gnu_cxx13new_allocatorIcE9constructIcJRKcEEEvPT_DpOT0_
	.def	__ZN9__gnu_cxx13new_allocatorIcE9constructIcJRKcEEEvPT_DpOT0_;	.scl	2;	.type	32;	.endef
__ZN9__gnu_cxx13new_allocatorIcE9constructIcJRKcEEEvPT_DpOT0_:
LFB8221:
	.cfi_startproc
	pushl	%ebp
	.cfi_def_cfa_offset 8
	.cfi_offset 5, -8
	movl	%esp, %ebp
	.cfi_def_cfa_register 5
	pushl	%ebx
	subl	$36, %esp
	.cfi_offset 3, -12
	movl	%ecx, -12(%ebp)
	movl	12(%ebp), %eax
	movl	%eax, (%esp)
	call	__ZSt7forwardIRKcEOT_RNSt16remove_referenceIS2_E4typeE
	movzbl	(%eax), %ebx
	movl	8(%ebp), %eax
	movl	%eax, 4(%esp)
	movl	$1, (%esp)
	call	__ZnwjPv
	testl	%eax, %eax
	je	L104
	movb	%bl, (%eax)
L104:
	nop
	addl	$36, %esp
	popl	%ebx
	.cfi_restore 3
	popl	%ebp
	.cfi_restore 5
	.cfi_def_cfa 4, 4
	ret	$8
	.cfi_endproc
LFE8221:
	.section	.text$_ZNSt5dequeIcSaIcEE22_M_reserve_map_at_backEj,"x"
	.linkonce discard
	.align 2
	.globl	__ZNSt5dequeIcSaIcEE22_M_reserve_map_at_backEj
	.def	__ZNSt5dequeIcSaIcEE22_M_reserve_map_at_backEj;	.scl	2;	.type	32;	.endef
__ZNSt5dequeIcSaIcEE22_M_reserve_map_at_backEj:
LFB8222:
	.cfi_startproc
	pushl	%ebp
	.cfi_def_cfa_offset 8
	.cfi_offset 5, -8
	movl	%esp, %ebp
	.cfi_def_cfa_register 5
	pushl	%ebx
	subl	$36, %esp
	.cfi_offset 3, -12
	movl	%ecx, -12(%ebp)
	movl	8(%ebp), %eax
	leal	1(%eax), %ecx
	movl	-12(%ebp), %eax
	movl	4(%eax), %edx
	movl	-12(%ebp), %eax
	movl	36(%eax), %eax
	movl	%eax, %ebx
	movl	-12(%ebp), %eax
	movl	(%eax), %eax
	subl	%eax, %ebx
	movl	%ebx, %eax
	sarl	$2, %eax
	subl	%eax, %edx
	movl	%edx, %eax
	cmpl	%eax, %ecx
	jbe	L107
	movl	-12(%ebp), %eax
	movl	$0, 4(%esp)
	movl	8(%ebp), %edx
	movl	%edx, (%esp)
	movl	%eax, %ecx
	call	__ZNSt5dequeIcSaIcEE17_M_reallocate_mapEjb
	subl	$8, %esp
L107:
	nop
	movl	-4(%ebp), %ebx
	leave
	.cfi_restore 5
	.cfi_restore 3
	.cfi_def_cfa 4, 4
	ret	$4
	.cfi_endproc
LFE8222:
	.section	.text$_ZNSt11_Deque_baseIcSaIcEE16_M_allocate_nodeEv,"x"
	.linkonce discard
	.align 2
	.globl	__ZNSt11_Deque_baseIcSaIcEE16_M_allocate_nodeEv
	.def	__ZNSt11_Deque_baseIcSaIcEE16_M_allocate_nodeEv;	.scl	2;	.type	32;	.endef
__ZNSt11_Deque_baseIcSaIcEE16_M_allocate_nodeEv:
LFB8223:
	.cfi_startproc
	pushl	%ebp
	.cfi_def_cfa_offset 8
	.cfi_offset 5, -8
	movl	%esp, %ebp
	.cfi_def_cfa_register 5
	subl	$40, %esp
	movl	%ecx, -12(%ebp)
	movl	$1, (%esp)
	call	__ZSt16__deque_buf_sizej
	movl	%eax, %edx
	movl	-12(%ebp), %eax
	movl	%edx, 4(%esp)
	movl	%eax, (%esp)
	call	__ZNSt16allocator_traitsISaIcEE8allocateERS0_j
	leave
	.cfi_restore 5
	.cfi_def_cfa 4, 4
	ret
	.cfi_endproc
LFE8223:
	.section	.text$_ZN9__gnu_cxx13new_allocatorIcE10deallocateEPcj,"x"
	.linkonce discard
	.align 2
	.globl	__ZN9__gnu_cxx13new_allocatorIcE10deallocateEPcj
	.def	__ZN9__gnu_cxx13new_allocatorIcE10deallocateEPcj;	.scl	2;	.type	32;	.endef
__ZN9__gnu_cxx13new_allocatorIcE10deallocateEPcj:
LFB8225:
	.cfi_startproc
	pushl	%ebp
	.cfi_def_cfa_offset 8
	.cfi_offset 5, -8
	movl	%esp, %ebp
	.cfi_def_cfa_register 5
	subl	$40, %esp
	movl	%ecx, -12(%ebp)
	movl	8(%ebp), %eax
	movl	%eax, (%esp)
	call	__ZdlPv
	nop
	leave
	.cfi_restore 5
	.cfi_def_cfa 4, 4
	ret	$8
	.cfi_endproc
LFE8225:
	.section	.text$_ZNSt16allocator_traitsISaIPcEE8allocateERS1_j,"x"
	.linkonce discard
	.globl	__ZNSt16allocator_traitsISaIPcEE8allocateERS1_j
	.def	__ZNSt16allocator_traitsISaIPcEE8allocateERS1_j;	.scl	2;	.type	32;	.endef
__ZNSt16allocator_traitsISaIPcEE8allocateERS1_j:
LFB8256:
	.cfi_startproc
	pushl	%ebp
	.cfi_def_cfa_offset 8
	.cfi_offset 5, -8
	movl	%esp, %ebp
	.cfi_def_cfa_register 5
	subl	$24, %esp
	movl	$0, 4(%esp)
	movl	12(%ebp), %eax
	movl	%eax, (%esp)
	movl	8(%ebp), %ecx
	call	__ZN9__gnu_cxx13new_allocatorIPcE8allocateEjPKv
	subl	$8, %esp
	leave
	.cfi_restore 5
	.cfi_def_cfa 4, 4
	ret
	.cfi_endproc
LFE8256:
	.section	.text$_ZNSt15_Deque_iteratorIcRcPcE14_S_buffer_sizeEv,"x"
	.linkonce discard
	.globl	__ZNSt15_Deque_iteratorIcRcPcE14_S_buffer_sizeEv
	.def	__ZNSt15_Deque_iteratorIcRcPcE14_S_buffer_sizeEv;	.scl	2;	.type	32;	.endef
__ZNSt15_Deque_iteratorIcRcPcE14_S_buffer_sizeEv:
LFB8257:
	.cfi_startproc
	pushl	%ebp
	.cfi_def_cfa_offset 8
	.cfi_offset 5, -8
	movl	%esp, %ebp
	.cfi_def_cfa_register 5
	subl	$24, %esp
	movl	$1, (%esp)
	call	__ZSt16__deque_buf_sizej
	leave
	.cfi_restore 5
	.cfi_def_cfa 4, 4
	ret
	.cfi_endproc
LFE8257:
	.section	.text$_ZNKSt11_Deque_baseIcSaIcEE19_M_get_Tp_allocatorEv,"x"
	.linkonce discard
	.align 2
	.globl	__ZNKSt11_Deque_baseIcSaIcEE19_M_get_Tp_allocatorEv
	.def	__ZNKSt11_Deque_baseIcSaIcEE19_M_get_Tp_allocatorEv;	.scl	2;	.type	32;	.endef
__ZNKSt11_Deque_baseIcSaIcEE19_M_get_Tp_allocatorEv:
LFB8258:
	.cfi_startproc
	pushl	%ebp
	.cfi_def_cfa_offset 8
	.cfi_offset 5, -8
	movl	%esp, %ebp
	.cfi_def_cfa_register 5
	subl	$4, %esp
	movl	%ecx, -4(%ebp)
	movl	-4(%ebp), %eax
	leave
	.cfi_restore 5
	.cfi_def_cfa 4, 4
	ret
	.cfi_endproc
LFE8258:
	.section	.text$_ZNSaIPcEC1IcEERKSaIT_E,"x"
	.linkonce discard
	.align 2
	.globl	__ZNSaIPcEC1IcEERKSaIT_E
	.def	__ZNSaIPcEC1IcEERKSaIT_E;	.scl	2;	.type	32;	.endef
__ZNSaIPcEC1IcEERKSaIT_E:
LFB8261:
	.cfi_startproc
	pushl	%ebp
	.cfi_def_cfa_offset 8
	.cfi_offset 5, -8
	movl	%esp, %ebp
	.cfi_def_cfa_register 5
	subl	$24, %esp
	movl	%ecx, -12(%ebp)
	movl	-12(%ebp), %eax
	movl	%eax, %ecx
	call	__ZN9__gnu_cxx13new_allocatorIPcEC2Ev
	nop
	leave
	.cfi_restore 5
	.cfi_def_cfa 4, 4
	ret	$4
	.cfi_endproc
LFE8261:
	.section	.text$_ZN9__gnu_cxx13new_allocatorIPcED2Ev,"x"
	.linkonce discard
	.align 2
	.globl	__ZN9__gnu_cxx13new_allocatorIPcED2Ev
	.def	__ZN9__gnu_cxx13new_allocatorIPcED2Ev;	.scl	2;	.type	32;	.endef
__ZN9__gnu_cxx13new_allocatorIPcED2Ev:
LFB8263:
	.cfi_startproc
	pushl	%ebp
	.cfi_def_cfa_offset 8
	.cfi_offset 5, -8
	movl	%esp, %ebp
	.cfi_def_cfa_register 5
	subl	$4, %esp
	movl	%ecx, -4(%ebp)
	nop
	leave
	.cfi_restore 5
	.cfi_def_cfa 4, 4
	ret
	.cfi_endproc
LFE8263:
	.section	.text$_ZN9__gnu_cxx13new_allocatorIPcE10deallocateEPS1_j,"x"
	.linkonce discard
	.align 2
	.globl	__ZN9__gnu_cxx13new_allocatorIPcE10deallocateEPS1_j
	.def	__ZN9__gnu_cxx13new_allocatorIPcE10deallocateEPS1_j;	.scl	2;	.type	32;	.endef
__ZN9__gnu_cxx13new_allocatorIPcE10deallocateEPS1_j:
LFB8268:
	.cfi_startproc
	pushl	%ebp
	.cfi_def_cfa_offset 8
	.cfi_offset 5, -8
	movl	%esp, %ebp
	.cfi_def_cfa_register 5
	subl	$40, %esp
	movl	%ecx, -12(%ebp)
	movl	8(%ebp), %eax
	movl	%eax, (%esp)
	call	__ZdlPv
	nop
	leave
	.cfi_restore 5
	.cfi_def_cfa 4, 4
	ret	$8
	.cfi_endproc
LFE8268:
	.section	.text$_ZNSt11_Deque_baseIcSaIcEE11_Deque_implC1EOS0_,"x"
	.linkonce discard
	.align 2
	.globl	__ZNSt11_Deque_baseIcSaIcEE11_Deque_implC1EOS0_
	.def	__ZNSt11_Deque_baseIcSaIcEE11_Deque_implC1EOS0_;	.scl	2;	.type	32;	.endef
__ZNSt11_Deque_baseIcSaIcEE11_Deque_implC1EOS0_:
LFB8272:
	.cfi_startproc
	pushl	%ebp
	.cfi_def_cfa_offset 8
	.cfi_offset 5, -8
	movl	%esp, %ebp
	.cfi_def_cfa_register 5
	subl	$40, %esp
	movl	%ecx, -12(%ebp)
	movl	8(%ebp), %eax
	movl	%eax, (%esp)
	call	__ZSt4moveIRSaIcEEONSt16remove_referenceIT_E4typeEOS3_
	movl	%eax, %edx
	movl	-12(%ebp), %eax
	movl	%edx, (%esp)
	movl	%eax, %ecx
	call	__ZNSaIcEC2ERKS_
	subl	$4, %esp
	movl	-12(%ebp), %eax
	movl	$0, (%eax)
	movl	-12(%ebp), %eax
	movl	$0, 4(%eax)
	movl	-12(%ebp), %eax
	addl	$8, %eax
	movl	%eax, %ecx
	call	__ZNSt15_Deque_iteratorIcRcPcEC1Ev
	movl	-12(%ebp), %eax
	addl	$24, %eax
	movl	%eax, %ecx
	call	__ZNSt15_Deque_iteratorIcRcPcEC1Ev
	nop
	leave
	.cfi_restore 5
	.cfi_def_cfa 4, 4
	ret	$4
	.cfi_endproc
LFE8272:
	.section	.text$_ZNSt11_Deque_baseIcSaIcEE11_Deque_impl12_M_swap_dataERS2_,"x"
	.linkonce discard
	.align 2
	.globl	__ZNSt11_Deque_baseIcSaIcEE11_Deque_impl12_M_swap_dataERS2_
	.def	__ZNSt11_Deque_baseIcSaIcEE11_Deque_impl12_M_swap_dataERS2_;	.scl	2;	.type	32;	.endef
__ZNSt11_Deque_baseIcSaIcEE11_Deque_impl12_M_swap_dataERS2_:
LFB8273:
	.cfi_startproc
	pushl	%ebp
	.cfi_def_cfa_offset 8
	.cfi_offset 5, -8
	movl	%esp, %ebp
	.cfi_def_cfa_register 5
	subl	$40, %esp
	movl	%ecx, -12(%ebp)
	movl	8(%ebp), %eax
	leal	8(%eax), %edx
	movl	-12(%ebp), %eax
	addl	$8, %eax
	movl	%edx, 4(%esp)
	movl	%eax, (%esp)
	call	__ZSt4swapISt15_Deque_iteratorIcRcPcEENSt9enable_ifIXsrSt6__and_IJSt21is_move_constructibleIT_ESt18is_move_assignableIS7_EEE5valueEvE4typeERS7_SE_
	movl	8(%ebp), %eax
	leal	24(%eax), %edx
	movl	-12(%ebp), %eax
	addl	$24, %eax
	movl	%edx, 4(%esp)
	movl	%eax, (%esp)
	call	__ZSt4swapISt15_Deque_iteratorIcRcPcEENSt9enable_ifIXsrSt6__and_IJSt21is_move_constructibleIT_ESt18is_move_assignableIS7_EEE5valueEvE4typeERS7_SE_
	movl	8(%ebp), %edx
	movl	-12(%ebp), %eax
	movl	%edx, 4(%esp)
	movl	%eax, (%esp)
	call	__ZSt4swapIPPcENSt9enable_ifIXsrSt6__and_IJSt21is_move_constructibleIT_ESt18is_move_assignableIS5_EEE5valueEvE4typeERS5_SC_
	movl	8(%ebp), %eax
	leal	4(%eax), %edx
	movl	-12(%ebp), %eax
	addl	$4, %eax
	movl	%edx, 4(%esp)
	movl	%eax, (%esp)
	call	__ZSt4swapIjENSt9enable_ifIXsrSt6__and_IJSt21is_move_constructibleIT_ESt18is_move_assignableIS3_EEE5valueEvE4typeERS3_SA_
	nop
	leave
	.cfi_restore 5
	.cfi_def_cfa 4, 4
	ret	$4
	.cfi_endproc
LFE8273:
	.section	.text$_ZNSt5dequeIcSaIcEE17_M_reallocate_mapEjb,"x"
	.linkonce discard
	.align 2
	.globl	__ZNSt5dequeIcSaIcEE17_M_reallocate_mapEjb
	.def	__ZNSt5dequeIcSaIcEE17_M_reallocate_mapEjb;	.scl	2;	.type	32;	.endef
__ZNSt5dequeIcSaIcEE17_M_reallocate_mapEjb:
LFB8274:
	.cfi_startproc
	pushl	%ebp
	.cfi_def_cfa_offset 8
	.cfi_offset 5, -8
	movl	%esp, %ebp
	.cfi_def_cfa_register 5
	pushl	%ebx
	subl	$68, %esp
	.cfi_offset 3, -12
	movl	%ecx, -44(%ebp)
	movl	12(%ebp), %eax
	movb	%al, -48(%ebp)
	movl	-44(%ebp), %eax
	movl	36(%eax), %eax
	movl	%eax, %edx
	movl	-44(%ebp), %eax
	movl	20(%eax), %eax
	subl	%eax, %edx
	movl	%edx, %eax
	sarl	$2, %eax
	addl	$1, %eax
	movl	%eax, -16(%ebp)
	movl	8(%ebp), %edx
	movl	-16(%ebp), %eax
	addl	%edx, %eax
	movl	%eax, -20(%ebp)
	movl	-44(%ebp), %eax
	movl	4(%eax), %eax
	movl	-20(%ebp), %edx
	addl	%edx, %edx
	cmpl	%edx, %eax
	jbe	L123
	movl	-44(%ebp), %eax
	movl	(%eax), %edx
	movl	-44(%ebp), %eax
	movl	4(%eax), %eax
	subl	-20(%ebp), %eax
	shrl	%eax
	leal	0(,%eax,4), %ecx
	cmpb	$0, -48(%ebp)
	je	L124
	movl	8(%ebp), %eax
	sall	$2, %eax
	jmp	L125
L124:
	movl	$0, %eax
L125:
	addl	%ecx, %eax
	addl	%edx, %eax
	movl	%eax, -12(%ebp)
	movl	-44(%ebp), %eax
	movl	20(%eax), %eax
	cmpl	-12(%ebp), %eax
	jbe	L126
	movl	-44(%ebp), %eax
	movl	36(%eax), %eax
	leal	4(%eax), %ecx
	movl	-44(%ebp), %eax
	movl	20(%eax), %eax
	movl	-12(%ebp), %edx
	movl	%edx, 8(%esp)
	movl	%ecx, 4(%esp)
	movl	%eax, (%esp)
	call	__ZSt4copyIPPcS1_ET0_T_S3_S2_
	jmp	L128
L126:
	movl	-16(%ebp), %eax
	leal	0(,%eax,4), %edx
	movl	-12(%ebp), %eax
	leal	(%edx,%eax), %ecx
	movl	-44(%ebp), %eax
	movl	36(%eax), %eax
	leal	4(%eax), %edx
	movl	-44(%ebp), %eax
	movl	20(%eax), %eax
	movl	%ecx, 8(%esp)
	movl	%edx, 4(%esp)
	movl	%eax, (%esp)
	call	__ZSt13copy_backwardIPPcS1_ET0_T_S3_S2_
	jmp	L128
L123:
	movl	-44(%ebp), %eax
	movl	4(%eax), %ebx
	movl	-44(%ebp), %eax
	addl	$4, %eax
	leal	8(%ebp), %ecx
	movl	%ecx, 4(%esp)
	movl	%eax, (%esp)
	call	__ZSt3maxIjERKT_S2_S2_
	movl	(%eax), %eax
	addl	%ebx, %eax
	addl	$2, %eax
	movl	%eax, -24(%ebp)
	movl	-44(%ebp), %eax
	movl	-24(%ebp), %edx
	movl	%edx, (%esp)
	movl	%eax, %ecx
	call	__ZNSt11_Deque_baseIcSaIcEE15_M_allocate_mapEj
	subl	$4, %esp
	movl	%eax, -28(%ebp)
	movl	-24(%ebp), %eax
	subl	-20(%ebp), %eax
	shrl	%eax
	leal	0(,%eax,4), %edx
	cmpb	$0, -48(%ebp)
	je	L129
	movl	8(%ebp), %eax
	sall	$2, %eax
	jmp	L130
L129:
	movl	$0, %eax
L130:
	addl	%eax, %edx
	movl	-28(%ebp), %eax
	addl	%edx, %eax
	movl	%eax, -12(%ebp)
	movl	-44(%ebp), %eax
	movl	36(%eax), %eax
	leal	4(%eax), %ecx
	movl	-44(%ebp), %eax
	movl	20(%eax), %eax
	movl	-12(%ebp), %edx
	movl	%edx, 8(%esp)
	movl	%ecx, 4(%esp)
	movl	%eax, (%esp)
	call	__ZSt4copyIPPcS1_ET0_T_S3_S2_
	movl	-44(%ebp), %eax
	movl	4(%eax), %ecx
	movl	-44(%ebp), %eax
	movl	(%eax), %edx
	movl	-44(%ebp), %eax
	movl	%ecx, 4(%esp)
	movl	%edx, (%esp)
	movl	%eax, %ecx
	call	__ZNSt11_Deque_baseIcSaIcEE17_M_deallocate_mapEPPcj
	subl	$8, %esp
	movl	-44(%ebp), %eax
	movl	-28(%ebp), %edx
	movl	%edx, (%eax)
	movl	-44(%ebp), %eax
	movl	-24(%ebp), %edx
	movl	%edx, 4(%eax)
L128:
	movl	-44(%ebp), %eax
	leal	8(%eax), %edx
	movl	-12(%ebp), %eax
	movl	%eax, (%esp)
	movl	%edx, %ecx
	call	__ZNSt15_Deque_iteratorIcRcPcE11_M_set_nodeEPS1_
	subl	$4, %esp
	movl	-16(%ebp), %eax
	addl	$1073741823, %eax
	leal	0(,%eax,4), %edx
	movl	-12(%ebp), %eax
	addl	%eax, %edx
	movl	-44(%ebp), %eax
	addl	$24, %eax
	movl	%edx, (%esp)
	movl	%eax, %ecx
	call	__ZNSt15_Deque_iteratorIcRcPcE11_M_set_nodeEPS1_
	subl	$4, %esp
	nop
	movl	-4(%ebp), %ebx
	leave
	.cfi_restore 5
	.cfi_restore 3
	.cfi_def_cfa 4, 4
	ret	$8
	.cfi_endproc
LFE8274:
	.section	.text$_ZNSt16allocator_traitsISaIcEE8allocateERS0_j,"x"
	.linkonce discard
	.globl	__ZNSt16allocator_traitsISaIcEE8allocateERS0_j
	.def	__ZNSt16allocator_traitsISaIcEE8allocateERS0_j;	.scl	2;	.type	32;	.endef
__ZNSt16allocator_traitsISaIcEE8allocateERS0_j:
LFB8275:
	.cfi_startproc
	pushl	%ebp
	.cfi_def_cfa_offset 8
	.cfi_offset 5, -8
	movl	%esp, %ebp
	.cfi_def_cfa_register 5
	subl	$24, %esp
	movl	$0, 4(%esp)
	movl	12(%ebp), %eax
	movl	%eax, (%esp)
	movl	8(%ebp), %ecx
	call	__ZN9__gnu_cxx13new_allocatorIcE8allocateEjPKv
	subl	$8, %esp
	leave
	.cfi_restore 5
	.cfi_def_cfa 4, 4
	ret
	.cfi_endproc
LFE8275:
	.section	.text$_ZNK9__gnu_cxx13new_allocatorIcE8max_sizeEv,"x"
	.linkonce discard
	.align 2
	.globl	__ZNK9__gnu_cxx13new_allocatorIcE8max_sizeEv
	.def	__ZNK9__gnu_cxx13new_allocatorIcE8max_sizeEv;	.scl	2;	.type	32;	.endef
__ZNK9__gnu_cxx13new_allocatorIcE8max_sizeEv:
LFB8299:
	.cfi_startproc
	pushl	%ebp
	.cfi_def_cfa_offset 8
	.cfi_offset 5, -8
	movl	%esp, %ebp
	.cfi_def_cfa_register 5
	subl	$4, %esp
	movl	%ecx, -4(%ebp)
	movl	$-1, %eax
	leave
	.cfi_restore 5
	.cfi_def_cfa 4, 4
	ret
	.cfi_endproc
LFE8299:
	.section	.text$_ZN9__gnu_cxx13new_allocatorIPcE8allocateEjPKv,"x"
	.linkonce discard
	.align 2
	.globl	__ZN9__gnu_cxx13new_allocatorIPcE8allocateEjPKv
	.def	__ZN9__gnu_cxx13new_allocatorIPcE8allocateEjPKv;	.scl	2;	.type	32;	.endef
__ZN9__gnu_cxx13new_allocatorIPcE8allocateEjPKv:
LFB8300:
	.cfi_startproc
	pushl	%ebp
	.cfi_def_cfa_offset 8
	.cfi_offset 5, -8
	movl	%esp, %ebp
	.cfi_def_cfa_register 5
	subl	$40, %esp
	movl	%ecx, -12(%ebp)
	movl	-12(%ebp), %eax
	movl	%eax, %ecx
	call	__ZNK9__gnu_cxx13new_allocatorIPcE8max_sizeEv
	cmpl	8(%ebp), %eax
	setb	%al
	testb	%al, %al
	je	L136
	call	__ZSt17__throw_bad_allocv
L136:
	movl	8(%ebp), %eax
	sall	$2, %eax
	movl	%eax, (%esp)
	call	__Znwj
	leave
	.cfi_restore 5
	.cfi_def_cfa 4, 4
	ret	$8
	.cfi_endproc
LFE8300:
	.section	.text$_ZN9__gnu_cxx13new_allocatorIPcEC2Ev,"x"
	.linkonce discard
	.align 2
	.globl	__ZN9__gnu_cxx13new_allocatorIPcEC2Ev
	.def	__ZN9__gnu_cxx13new_allocatorIPcEC2Ev;	.scl	2;	.type	32;	.endef
__ZN9__gnu_cxx13new_allocatorIPcEC2Ev:
LFB8302:
	.cfi_startproc
	pushl	%ebp
	.cfi_def_cfa_offset 8
	.cfi_offset 5, -8
	movl	%esp, %ebp
	.cfi_def_cfa_register 5
	subl	$4, %esp
	movl	%ecx, -4(%ebp)
	nop
	leave
	.cfi_restore 5
	.cfi_def_cfa 4, 4
	ret
	.cfi_endproc
LFE8302:
	.section	.text$_ZSt4moveIRSt15_Deque_iteratorIcRcPcEEONSt16remove_referenceIT_E4typeEOS6_,"x"
	.linkonce discard
	.globl	__ZSt4moveIRSt15_Deque_iteratorIcRcPcEEONSt16remove_referenceIT_E4typeEOS6_
	.def	__ZSt4moveIRSt15_Deque_iteratorIcRcPcEEONSt16remove_referenceIT_E4typeEOS6_;	.scl	2;	.type	32;	.endef
__ZSt4moveIRSt15_Deque_iteratorIcRcPcEEONSt16remove_referenceIT_E4typeEOS6_:
LFB8306:
	.cfi_startproc
	pushl	%ebp
	.cfi_def_cfa_offset 8
	.cfi_offset 5, -8
	movl	%esp, %ebp
	.cfi_def_cfa_register 5
	movl	8(%ebp), %eax
	popl	%ebp
	.cfi_restore 5
	.cfi_def_cfa 4, 4
	ret
	.cfi_endproc
LFE8306:
	.section	.text$_ZSt4swapISt15_Deque_iteratorIcRcPcEENSt9enable_ifIXsrSt6__and_IJSt21is_move_constructibleIT_ESt18is_move_assignableIS7_EEE5valueEvE4typeERS7_SE_,"x"
	.linkonce discard
	.globl	__ZSt4swapISt15_Deque_iteratorIcRcPcEENSt9enable_ifIXsrSt6__and_IJSt21is_move_constructibleIT_ESt18is_move_assignableIS7_EEE5valueEvE4typeERS7_SE_
	.def	__ZSt4swapISt15_Deque_iteratorIcRcPcEENSt9enable_ifIXsrSt6__and_IJSt21is_move_constructibleIT_ESt18is_move_assignableIS7_EEE5valueEvE4typeERS7_SE_;	.scl	2;	.type	32;	.endef
__ZSt4swapISt15_Deque_iteratorIcRcPcEENSt9enable_ifIXsrSt6__and_IJSt21is_move_constructibleIT_ESt18is_move_assignableIS7_EEE5valueEvE4typeERS7_SE_:
LFB8305:
	.cfi_startproc
	pushl	%ebp
	.cfi_def_cfa_offset 8
	.cfi_offset 5, -8
	movl	%esp, %ebp
	.cfi_def_cfa_register 5
	subl	$40, %esp
	movl	8(%ebp), %eax
	movl	%eax, (%esp)
	call	__ZSt4moveIRSt15_Deque_iteratorIcRcPcEEONSt16remove_referenceIT_E4typeEOS6_
	movl	%eax, %edx
	leal	-24(%ebp), %eax
	movl	%edx, (%esp)
	movl	%eax, %ecx
	call	__ZNSt15_Deque_iteratorIcRcPcEC1ERKS2_
	subl	$4, %esp
	movl	12(%ebp), %eax
	movl	%eax, (%esp)
	call	__ZSt4moveIRSt15_Deque_iteratorIcRcPcEEONSt16remove_referenceIT_E4typeEOS6_
	movl	%eax, %edx
	movl	8(%ebp), %eax
	movl	(%edx), %ecx
	movl	%ecx, (%eax)
	movl	4(%edx), %ecx
	movl	%ecx, 4(%eax)
	movl	8(%edx), %ecx
	movl	%ecx, 8(%eax)
	movl	12(%edx), %edx
	movl	%edx, 12(%eax)
	leal	-24(%ebp), %eax
	movl	%eax, (%esp)
	call	__ZSt4moveIRSt15_Deque_iteratorIcRcPcEEONSt16remove_referenceIT_E4typeEOS6_
	movl	%eax, %edx
	movl	12(%ebp), %eax
	movl	(%edx), %ecx
	movl	%ecx, (%eax)
	movl	4(%edx), %ecx
	movl	%ecx, 4(%eax)
	movl	8(%edx), %ecx
	movl	%ecx, 8(%eax)
	movl	12(%edx), %edx
	movl	%edx, 12(%eax)
	nop
	leave
	.cfi_restore 5
	.cfi_def_cfa 4, 4
	ret
	.cfi_endproc
LFE8305:
	.section	.text$_ZSt4moveIRPPcEONSt16remove_referenceIT_E4typeEOS4_,"x"
	.linkonce discard
	.globl	__ZSt4moveIRPPcEONSt16remove_referenceIT_E4typeEOS4_
	.def	__ZSt4moveIRPPcEONSt16remove_referenceIT_E4typeEOS4_;	.scl	2;	.type	32;	.endef
__ZSt4moveIRPPcEONSt16remove_referenceIT_E4typeEOS4_:
LFB8308:
	.cfi_startproc
	pushl	%ebp
	.cfi_def_cfa_offset 8
	.cfi_offset 5, -8
	movl	%esp, %ebp
	.cfi_def_cfa_register 5
	movl	8(%ebp), %eax
	popl	%ebp
	.cfi_restore 5
	.cfi_def_cfa 4, 4
	ret
	.cfi_endproc
LFE8308:
	.section	.text$_ZSt4swapIPPcENSt9enable_ifIXsrSt6__and_IJSt21is_move_constructibleIT_ESt18is_move_assignableIS5_EEE5valueEvE4typeERS5_SC_,"x"
	.linkonce discard
	.globl	__ZSt4swapIPPcENSt9enable_ifIXsrSt6__and_IJSt21is_move_constructibleIT_ESt18is_move_assignableIS5_EEE5valueEvE4typeERS5_SC_
	.def	__ZSt4swapIPPcENSt9enable_ifIXsrSt6__and_IJSt21is_move_constructibleIT_ESt18is_move_assignableIS5_EEE5valueEvE4typeERS5_SC_;	.scl	2;	.type	32;	.endef
__ZSt4swapIPPcENSt9enable_ifIXsrSt6__and_IJSt21is_move_constructibleIT_ESt18is_move_assignableIS5_EEE5valueEvE4typeERS5_SC_:
LFB8307:
	.cfi_startproc
	pushl	%ebp
	.cfi_def_cfa_offset 8
	.cfi_offset 5, -8
	movl	%esp, %ebp
	.cfi_def_cfa_register 5
	subl	$40, %esp
	movl	8(%ebp), %eax
	movl	%eax, (%esp)
	call	__ZSt4moveIRPPcEONSt16remove_referenceIT_E4typeEOS4_
	movl	(%eax), %eax
	movl	%eax, -12(%ebp)
	movl	12(%ebp), %eax
	movl	%eax, (%esp)
	call	__ZSt4moveIRPPcEONSt16remove_referenceIT_E4typeEOS4_
	movl	(%eax), %edx
	movl	8(%ebp), %eax
	movl	%edx, (%eax)
	leal	-12(%ebp), %eax
	movl	%eax, (%esp)
	call	__ZSt4moveIRPPcEONSt16remove_referenceIT_E4typeEOS4_
	movl	(%eax), %edx
	movl	12(%ebp), %eax
	movl	%edx, (%eax)
	nop
	leave
	.cfi_restore 5
	.cfi_def_cfa 4, 4
	ret
	.cfi_endproc
LFE8307:
	.section	.text$_ZSt4moveIRjEONSt16remove_referenceIT_E4typeEOS2_,"x"
	.linkonce discard
	.globl	__ZSt4moveIRjEONSt16remove_referenceIT_E4typeEOS2_
	.def	__ZSt4moveIRjEONSt16remove_referenceIT_E4typeEOS2_;	.scl	2;	.type	32;	.endef
__ZSt4moveIRjEONSt16remove_referenceIT_E4typeEOS2_:
LFB8310:
	.cfi_startproc
	pushl	%ebp
	.cfi_def_cfa_offset 8
	.cfi_offset 5, -8
	movl	%esp, %ebp
	.cfi_def_cfa_register 5
	movl	8(%ebp), %eax
	popl	%ebp
	.cfi_restore 5
	.cfi_def_cfa 4, 4
	ret
	.cfi_endproc
LFE8310:
	.section	.text$_ZSt4swapIjENSt9enable_ifIXsrSt6__and_IJSt21is_move_constructibleIT_ESt18is_move_assignableIS3_EEE5valueEvE4typeERS3_SA_,"x"
	.linkonce discard
	.globl	__ZSt4swapIjENSt9enable_ifIXsrSt6__and_IJSt21is_move_constructibleIT_ESt18is_move_assignableIS3_EEE5valueEvE4typeERS3_SA_
	.def	__ZSt4swapIjENSt9enable_ifIXsrSt6__and_IJSt21is_move_constructibleIT_ESt18is_move_assignableIS3_EEE5valueEvE4typeERS3_SA_;	.scl	2;	.type	32;	.endef
__ZSt4swapIjENSt9enable_ifIXsrSt6__and_IJSt21is_move_constructibleIT_ESt18is_move_assignableIS3_EEE5valueEvE4typeERS3_SA_:
LFB8309:
	.cfi_startproc
	pushl	%ebp
	.cfi_def_cfa_offset 8
	.cfi_offset 5, -8
	movl	%esp, %ebp
	.cfi_def_cfa_register 5
	subl	$40, %esp
	movl	8(%ebp), %eax
	movl	%eax, (%esp)
	call	__ZSt4moveIRjEONSt16remove_referenceIT_E4typeEOS2_
	movl	(%eax), %eax
	movl	%eax, -12(%ebp)
	movl	12(%ebp), %eax
	movl	%eax, (%esp)
	call	__ZSt4moveIRjEONSt16remove_referenceIT_E4typeEOS2_
	movl	(%eax), %edx
	movl	8(%ebp), %eax
	movl	%edx, (%eax)
	leal	-12(%ebp), %eax
	movl	%eax, (%esp)
	call	__ZSt4moveIRjEONSt16remove_referenceIT_E4typeEOS2_
	movl	(%eax), %edx
	movl	12(%ebp), %eax
	movl	%edx, (%eax)
	nop
	leave
	.cfi_restore 5
	.cfi_def_cfa 4, 4
	ret
	.cfi_endproc
LFE8309:
	.section	.text$_ZSt4copyIPPcS1_ET0_T_S3_S2_,"x"
	.linkonce discard
	.globl	__ZSt4copyIPPcS1_ET0_T_S3_S2_
	.def	__ZSt4copyIPPcS1_ET0_T_S3_S2_;	.scl	2;	.type	32;	.endef
__ZSt4copyIPPcS1_ET0_T_S3_S2_:
LFB8311:
	.cfi_startproc
	pushl	%ebp
	.cfi_def_cfa_offset 8
	.cfi_offset 5, -8
	movl	%esp, %ebp
	.cfi_def_cfa_register 5
	pushl	%ebx
	subl	$20, %esp
	.cfi_offset 3, -12
	movl	12(%ebp), %eax
	movl	%eax, (%esp)
	call	__ZSt12__miter_baseIPPcET_S2_
	movl	%eax, %ebx
	movl	8(%ebp), %eax
	movl	%eax, (%esp)
	call	__ZSt12__miter_baseIPPcET_S2_
	movl	%eax, %edx
	movl	16(%ebp), %eax
	movl	%eax, 8(%esp)
	movl	%ebx, 4(%esp)
	movl	%edx, (%esp)
	call	__ZSt14__copy_move_a2ILb0EPPcS1_ET1_T0_S3_S2_
	addl	$20, %esp
	popl	%ebx
	.cfi_restore 3
	popl	%ebp
	.cfi_restore 5
	.cfi_def_cfa 4, 4
	ret
	.cfi_endproc
LFE8311:
	.section	.text$_ZSt13copy_backwardIPPcS1_ET0_T_S3_S2_,"x"
	.linkonce discard
	.globl	__ZSt13copy_backwardIPPcS1_ET0_T_S3_S2_
	.def	__ZSt13copy_backwardIPPcS1_ET0_T_S3_S2_;	.scl	2;	.type	32;	.endef
__ZSt13copy_backwardIPPcS1_ET0_T_S3_S2_:
LFB8312:
	.cfi_startproc
	pushl	%ebp
	.cfi_def_cfa_offset 8
	.cfi_offset 5, -8
	movl	%esp, %ebp
	.cfi_def_cfa_register 5
	pushl	%ebx
	subl	$20, %esp
	.cfi_offset 3, -12
	movl	12(%ebp), %eax
	movl	%eax, (%esp)
	call	__ZSt12__miter_baseIPPcET_S2_
	movl	%eax, %ebx
	movl	8(%ebp), %eax
	movl	%eax, (%esp)
	call	__ZSt12__miter_baseIPPcET_S2_
	movl	%eax, %edx
	movl	16(%ebp), %eax
	movl	%eax, 8(%esp)
	movl	%ebx, 4(%esp)
	movl	%edx, (%esp)
	call	__ZSt23__copy_move_backward_a2ILb0EPPcS1_ET1_T0_S3_S2_
	addl	$20, %esp
	popl	%ebx
	.cfi_restore 3
	popl	%ebp
	.cfi_restore 5
	.cfi_def_cfa 4, 4
	ret
	.cfi_endproc
LFE8312:
	.section	.text$_ZN9__gnu_cxx13new_allocatorIcE8allocateEjPKv,"x"
	.linkonce discard
	.align 2
	.globl	__ZN9__gnu_cxx13new_allocatorIcE8allocateEjPKv
	.def	__ZN9__gnu_cxx13new_allocatorIcE8allocateEjPKv;	.scl	2;	.type	32;	.endef
__ZN9__gnu_cxx13new_allocatorIcE8allocateEjPKv:
LFB8313:
	.cfi_startproc
	pushl	%ebp
	.cfi_def_cfa_offset 8
	.cfi_offset 5, -8
	movl	%esp, %ebp
	.cfi_def_cfa_register 5
	subl	$40, %esp
	movl	%ecx, -12(%ebp)
	movl	-12(%ebp), %eax
	movl	%eax, %ecx
	call	__ZNK9__gnu_cxx13new_allocatorIcE8max_sizeEv
	cmpl	8(%ebp), %eax
	setb	%al
	testb	%al, %al
	je	L153
	call	__ZSt17__throw_bad_allocv
L153:
	movl	8(%ebp), %eax
	movl	%eax, (%esp)
	call	__Znwj
	leave
	.cfi_restore 5
	.cfi_def_cfa 4, 4
	ret	$8
	.cfi_endproc
LFE8313:
	.section	.text$_ZNK9__gnu_cxx13new_allocatorIPcE8max_sizeEv,"x"
	.linkonce discard
	.align 2
	.globl	__ZNK9__gnu_cxx13new_allocatorIPcE8max_sizeEv
	.def	__ZNK9__gnu_cxx13new_allocatorIPcE8max_sizeEv;	.scl	2;	.type	32;	.endef
__ZNK9__gnu_cxx13new_allocatorIPcE8max_sizeEv:
LFB8322:
	.cfi_startproc
	pushl	%ebp
	.cfi_def_cfa_offset 8
	.cfi_offset 5, -8
	movl	%esp, %ebp
	.cfi_def_cfa_register 5
	subl	$4, %esp
	movl	%ecx, -4(%ebp)
	movl	$1073741823, %eax
	leave
	.cfi_restore 5
	.cfi_def_cfa 4, 4
	ret
	.cfi_endproc
LFE8322:
	.section	.text$_ZSt12__miter_baseIPPcET_S2_,"x"
	.linkonce discard
	.globl	__ZSt12__miter_baseIPPcET_S2_
	.def	__ZSt12__miter_baseIPPcET_S2_;	.scl	2;	.type	32;	.endef
__ZSt12__miter_baseIPPcET_S2_:
LFB8323:
	.cfi_startproc
	pushl	%ebp
	.cfi_def_cfa_offset 8
	.cfi_offset 5, -8
	movl	%esp, %ebp
	.cfi_def_cfa_register 5
	movl	8(%ebp), %eax
	popl	%ebp
	.cfi_restore 5
	.cfi_def_cfa 4, 4
	ret
	.cfi_endproc
LFE8323:
	.section	.text$_ZSt14__copy_move_a2ILb0EPPcS1_ET1_T0_S3_S2_,"x"
	.linkonce discard
	.globl	__ZSt14__copy_move_a2ILb0EPPcS1_ET1_T0_S3_S2_
	.def	__ZSt14__copy_move_a2ILb0EPPcS1_ET1_T0_S3_S2_;	.scl	2;	.type	32;	.endef
__ZSt14__copy_move_a2ILb0EPPcS1_ET1_T0_S3_S2_:
LFB8324:
	.cfi_startproc
	pushl	%ebp
	.cfi_def_cfa_offset 8
	.cfi_offset 5, -8
	movl	%esp, %ebp
	.cfi_def_cfa_register 5
	pushl	%esi
	pushl	%ebx
	subl	$16, %esp
	.cfi_offset 6, -12
	.cfi_offset 3, -16
	movl	16(%ebp), %eax
	movl	%eax, (%esp)
	call	__ZSt12__niter_baseIPPcET_S2_
	movl	%eax, %esi
	movl	12(%ebp), %eax
	movl	%eax, (%esp)
	call	__ZSt12__niter_baseIPPcET_S2_
	movl	%eax, %ebx
	movl	8(%ebp), %eax
	movl	%eax, (%esp)
	call	__ZSt12__niter_baseIPPcET_S2_
	movl	%esi, 8(%esp)
	movl	%ebx, 4(%esp)
	movl	%eax, (%esp)
	call	__ZSt13__copy_move_aILb0EPPcS1_ET1_T0_S3_S2_
	addl	$16, %esp
	popl	%ebx
	.cfi_restore 3
	popl	%esi
	.cfi_restore 6
	popl	%ebp
	.cfi_restore 5
	.cfi_def_cfa 4, 4
	ret
	.cfi_endproc
LFE8324:
	.section	.text$_ZSt23__copy_move_backward_a2ILb0EPPcS1_ET1_T0_S3_S2_,"x"
	.linkonce discard
	.globl	__ZSt23__copy_move_backward_a2ILb0EPPcS1_ET1_T0_S3_S2_
	.def	__ZSt23__copy_move_backward_a2ILb0EPPcS1_ET1_T0_S3_S2_;	.scl	2;	.type	32;	.endef
__ZSt23__copy_move_backward_a2ILb0EPPcS1_ET1_T0_S3_S2_:
LFB8325:
	.cfi_startproc
	pushl	%ebp
	.cfi_def_cfa_offset 8
	.cfi_offset 5, -8
	movl	%esp, %ebp
	.cfi_def_cfa_register 5
	pushl	%esi
	pushl	%ebx
	subl	$16, %esp
	.cfi_offset 6, -12
	.cfi_offset 3, -16
	movl	16(%ebp), %eax
	movl	%eax, (%esp)
	call	__ZSt12__niter_baseIPPcET_S2_
	movl	%eax, %esi
	movl	12(%ebp), %eax
	movl	%eax, (%esp)
	call	__ZSt12__niter_baseIPPcET_S2_
	movl	%eax, %ebx
	movl	8(%ebp), %eax
	movl	%eax, (%esp)
	call	__ZSt12__niter_baseIPPcET_S2_
	movl	%esi, 8(%esp)
	movl	%ebx, 4(%esp)
	movl	%eax, (%esp)
	call	__ZSt22__copy_move_backward_aILb0EPPcS1_ET1_T0_S3_S2_
	addl	$16, %esp
	popl	%ebx
	.cfi_restore 3
	popl	%esi
	.cfi_restore 6
	popl	%ebp
	.cfi_restore 5
	.cfi_def_cfa 4, 4
	ret
	.cfi_endproc
LFE8325:
	.section	.text$_ZSt12__niter_baseIPPcET_S2_,"x"
	.linkonce discard
	.globl	__ZSt12__niter_baseIPPcET_S2_
	.def	__ZSt12__niter_baseIPPcET_S2_;	.scl	2;	.type	32;	.endef
__ZSt12__niter_baseIPPcET_S2_:
LFB8328:
	.cfi_startproc
	pushl	%ebp
	.cfi_def_cfa_offset 8
	.cfi_offset 5, -8
	movl	%esp, %ebp
	.cfi_def_cfa_register 5
	movl	8(%ebp), %eax
	popl	%ebp
	.cfi_restore 5
	.cfi_def_cfa 4, 4
	ret
	.cfi_endproc
LFE8328:
	.section	.text$_ZSt13__copy_move_aILb0EPPcS1_ET1_T0_S3_S2_,"x"
	.linkonce discard
	.globl	__ZSt13__copy_move_aILb0EPPcS1_ET1_T0_S3_S2_
	.def	__ZSt13__copy_move_aILb0EPPcS1_ET1_T0_S3_S2_;	.scl	2;	.type	32;	.endef
__ZSt13__copy_move_aILb0EPPcS1_ET1_T0_S3_S2_:
LFB8329:
	.cfi_startproc
	pushl	%ebp
	.cfi_def_cfa_offset 8
	.cfi_offset 5, -8
	movl	%esp, %ebp
	.cfi_def_cfa_register 5
	subl	$40, %esp
	movb	$1, -9(%ebp)
	movl	16(%ebp), %eax
	movl	%eax, 8(%esp)
	movl	12(%ebp), %eax
	movl	%eax, 4(%esp)
	movl	8(%ebp), %eax
	movl	%eax, (%esp)
	call	__ZNSt11__copy_moveILb0ELb1ESt26random_access_iterator_tagE8__copy_mIPcEEPT_PKS4_S7_S5_
	leave
	.cfi_restore 5
	.cfi_def_cfa 4, 4
	ret
	.cfi_endproc
LFE8329:
	.section	.text$_ZSt22__copy_move_backward_aILb0EPPcS1_ET1_T0_S3_S2_,"x"
	.linkonce discard
	.globl	__ZSt22__copy_move_backward_aILb0EPPcS1_ET1_T0_S3_S2_
	.def	__ZSt22__copy_move_backward_aILb0EPPcS1_ET1_T0_S3_S2_;	.scl	2;	.type	32;	.endef
__ZSt22__copy_move_backward_aILb0EPPcS1_ET1_T0_S3_S2_:
LFB8330:
	.cfi_startproc
	pushl	%ebp
	.cfi_def_cfa_offset 8
	.cfi_offset 5, -8
	movl	%esp, %ebp
	.cfi_def_cfa_register 5
	subl	$40, %esp
	movb	$1, -9(%ebp)
	movl	16(%ebp), %eax
	movl	%eax, 8(%esp)
	movl	12(%ebp), %eax
	movl	%eax, 4(%esp)
	movl	8(%ebp), %eax
	movl	%eax, (%esp)
	call	__ZNSt20__copy_move_backwardILb0ELb1ESt26random_access_iterator_tagE13__copy_move_bIPcEEPT_PKS4_S7_S5_
	leave
	.cfi_restore 5
	.cfi_def_cfa 4, 4
	ret
	.cfi_endproc
LFE8330:
	.section	.text$_ZNSt11__copy_moveILb0ELb1ESt26random_access_iterator_tagE8__copy_mIPcEEPT_PKS4_S7_S5_,"x"
	.linkonce discard
	.globl	__ZNSt11__copy_moveILb0ELb1ESt26random_access_iterator_tagE8__copy_mIPcEEPT_PKS4_S7_S5_
	.def	__ZNSt11__copy_moveILb0ELb1ESt26random_access_iterator_tagE8__copy_mIPcEEPT_PKS4_S7_S5_;	.scl	2;	.type	32;	.endef
__ZNSt11__copy_moveILb0ELb1ESt26random_access_iterator_tagE8__copy_mIPcEEPT_PKS4_S7_S5_:
LFB8331:
	.cfi_startproc
	pushl	%ebp
	.cfi_def_cfa_offset 8
	.cfi_offset 5, -8
	movl	%esp, %ebp
	.cfi_def_cfa_register 5
	subl	$40, %esp
	movl	12(%ebp), %edx
	movl	8(%ebp), %eax
	subl	%eax, %edx
	movl	%edx, %eax
	sarl	$2, %eax
	movl	%eax, -12(%ebp)
	cmpl	$0, -12(%ebp)
	je	L170
	movl	-12(%ebp), %eax
	sall	$2, %eax
	movl	%eax, 8(%esp)
	movl	8(%ebp), %eax
	movl	%eax, 4(%esp)
	movl	16(%ebp), %eax
	movl	%eax, (%esp)
	call	_memmove
L170:
	movl	-12(%ebp), %eax
	leal	0(,%eax,4), %edx
	movl	16(%ebp), %eax
	addl	%edx, %eax
	leave
	.cfi_restore 5
	.cfi_def_cfa 4, 4
	ret
	.cfi_endproc
LFE8331:
	.section	.text$_ZNSt20__copy_move_backwardILb0ELb1ESt26random_access_iterator_tagE13__copy_move_bIPcEEPT_PKS4_S7_S5_,"x"
	.linkonce discard
	.globl	__ZNSt20__copy_move_backwardILb0ELb1ESt26random_access_iterator_tagE13__copy_move_bIPcEEPT_PKS4_S7_S5_
	.def	__ZNSt20__copy_move_backwardILb0ELb1ESt26random_access_iterator_tagE13__copy_move_bIPcEEPT_PKS4_S7_S5_;	.scl	2;	.type	32;	.endef
__ZNSt20__copy_move_backwardILb0ELb1ESt26random_access_iterator_tagE13__copy_move_bIPcEEPT_PKS4_S7_S5_:
LFB8332:
	.cfi_startproc
	pushl	%ebp
	.cfi_def_cfa_offset 8
	.cfi_offset 5, -8
	movl	%esp, %ebp
	.cfi_def_cfa_register 5
	subl	$40, %esp
	movl	12(%ebp), %edx
	movl	8(%ebp), %eax
	subl	%eax, %edx
	movl	%edx, %eax
	sarl	$2, %eax
	movl	%eax, -12(%ebp)
	cmpl	$0, -12(%ebp)
	je	L173
	movl	-12(%ebp), %eax
	sall	$2, %eax
	movl	-12(%ebp), %edx
	sall	$2, %edx
	movl	%edx, %ecx
	negl	%ecx
	movl	16(%ebp), %edx
	addl	%ecx, %edx
	movl	%eax, 8(%esp)
	movl	8(%ebp), %eax
	movl	%eax, 4(%esp)
	movl	%edx, (%esp)
	call	_memmove
L173:
	movl	-12(%ebp), %eax
	sall	$2, %eax
	negl	%eax
	movl	%eax, %edx
	movl	16(%ebp), %eax
	addl	%edx, %eax
	leave
	.cfi_restore 5
	.cfi_def_cfa 4, 4
	ret
	.cfi_endproc
LFE8332:
	.text
	.def	___tcf_0;	.scl	3;	.type	32;	.endef
___tcf_0:
LFB8342:
	.cfi_startproc
	pushl	%ebp
	.cfi_def_cfa_offset 8
	.cfi_offset 5, -8
	movl	%esp, %ebp
	.cfi_def_cfa_register 5
	subl	$8, %esp
	movl	$__ZStL8__ioinit, %ecx
	call	__ZNSt8ios_base4InitD1Ev
	leave
	.cfi_restore 5
	.cfi_def_cfa 4, 4
	ret
	.cfi_endproc
LFE8342:
	.def	__Z41__static_initialization_and_destruction_0ii;	.scl	3;	.type	32;	.endef
__Z41__static_initialization_and_destruction_0ii:
LFB8341:
	.cfi_startproc
	pushl	%ebp
	.cfi_def_cfa_offset 8
	.cfi_offset 5, -8
	movl	%esp, %ebp
	.cfi_def_cfa_register 5
	subl	$24, %esp
	cmpl	$1, 8(%ebp)
	jne	L178
	cmpl	$65535, 12(%ebp)
	jne	L178
	movl	$__ZStL8__ioinit, %ecx
	call	__ZNSt8ios_base4InitC1Ev
	movl	$___tcf_0, (%esp)
	call	_atexit
L178:
	nop
	leave
	.cfi_restore 5
	.cfi_def_cfa 4, 4
	ret
	.cfi_endproc
LFE8341:
	.def	__GLOBAL__sub_I__Z5solvev;	.scl	3;	.type	32;	.endef
__GLOBAL__sub_I__Z5solvev:
LFB8343:
	.cfi_startproc
	pushl	%ebp
	.cfi_def_cfa_offset 8
	.cfi_offset 5, -8
	movl	%esp, %ebp
	.cfi_def_cfa_register 5
	subl	$24, %esp
	movl	$65535, 4(%esp)
	movl	$1, (%esp)
	call	__Z41__static_initialization_and_destruction_0ii
	leave
	.cfi_restore 5
	.cfi_def_cfa 4, 4
	ret
	.cfi_endproc
LFE8343:
	.section	.ctors,"w"
	.align 4
	.long	__GLOBAL__sub_I__Z5solvev
	.ident	"GCC: (MinGW.org GCC-6.3.0-1) 6.3.0"
	.def	__ZNSirsERi;	.scl	2;	.type	32;	.endef
	.def	__ZNSt7__cxx1112basic_stringIcSt11char_traitsIcESaIcEEC1Ev;	.scl	2;	.type	32;	.endef
	.def	__ZStrsIcSt11char_traitsIcESaIcEERSt13basic_istreamIT_T0_ES7_RNSt7__cxx1112basic_stringIS4_S5_T1_EE;	.scl	2;	.type	32;	.endef
	.def	__ZNSt7__cxx1112basic_stringIcSt11char_traitsIcESaIcEEixEj;	.scl	2;	.type	32;	.endef
	.def	__ZNSt7__cxx1112basic_stringIcSt11char_traitsIcESaIcEED1Ev;	.scl	2;	.type	32;	.endef
	.def	__Unwind_Resume;	.scl	2;	.type	32;	.endef
	.def	__ZNSt8ios_base15sync_with_stdioEb;	.scl	2;	.type	32;	.endef
	.def	__ZNSt9basic_iosIcSt11char_traitsIcEE3tieEPSo;	.scl	2;	.type	32;	.endef
	.def	__ZNSaIcED2Ev;	.scl	2;	.type	32;	.endef
	.def	__ZNSaIcEC2Ev;	.scl	2;	.type	32;	.endef
	.def	___cxa_begin_catch;	.scl	2;	.type	32;	.endef
	.def	___cxa_rethrow;	.scl	2;	.type	32;	.endef
	.def	___cxa_end_catch;	.scl	2;	.type	32;	.endef
	.def	__ZdlPv;	.scl	2;	.type	32;	.endef
	.def	__ZNSaIcEC2ERKS_;	.scl	2;	.type	32;	.endef
	.def	__ZSt17__throw_bad_allocv;	.scl	2;	.type	32;	.endef
	.def	__Znwj;	.scl	2;	.type	32;	.endef
	.def	_memmove;	.scl	2;	.type	32;	.endef
	.def	__ZNSt8ios_base4InitD1Ev;	.scl	2;	.type	32;	.endef
	.def	__ZNSt8ios_base4InitC1Ev;	.scl	2;	.type	32;	.endef
	.def	_atexit;	.scl	2;	.type	32;	.endef
